(dp0
S'c2eddf15-d5d9-4218-a80f-73fa5e29d9ea'
p1
(lp2
ccopy_reg
_reconstructor
p3
(cuuid
UUID
p4
c__builtin__
object
p5
Ntp6
Rp7
(dp8
S'int'
p9
L80950811884249084224552658667817317920L
sbaI0
aF53888.203588637174
aF100299.43775467828
aF186.12503493404137
aF57.29695658171864
aF44.843012314790975
aF96.68237305531795
aF75.66769867365252
aF53264.989333832935
asS'ee4a0c0e-57fb-4760-b5ee-7be841a38d6e'
p10
(lp11
g3
(g4
g5
Ntp12
Rp13
(dp14
g9
L80950838029542713932799907728269686304L
sbaI0
aF26273.35963637698
aF2863.4806861523266
aF10.898799109755544
aF57.29695658171864
aF44.843012314790975
aF96.68237305531795
aF75.66769867365252
aF2863.4806861523266
as.