(dp0
S'c2eddf15-d5d9-4218-a80f-73fa5e29d9ea'
p1
(lp2
ccopy_reg
_reconstructor
p3
(cuuid
UUID
p4
c__builtin__
object
p5
Ntp6
Rp7
(dp8
S'int'
p9
L80950811884249084224552658667817317920L
sbaI0
aF54431.59870431402
aF100299.43775467828
aF184.26693343976495
aF56.187568905454235
aF44.29350544514998
aF95.76644648609192
aF75.49412977863533
aF53075.55009022404
asS'ee4a0c0e-57fb-4760-b5ee-7be841a38d6e'
p10
(lp11
g3
(g4
g5
Ntp12
Rp13
(dp14
g9
L80950838029542713932799907728269686304L
sbaI0
aF26538.29359869296
aF2863.4806861523266
aF10.789995504056659
aF56.187568905454235
aF44.29350544514998
aF95.76644648609192
aF75.49412977863533
aF2694.9715810831085
as.