(dp0
S'c2eddf15-d5d9-4218-a80f-73fa5e29d9ea'
p1
(lp2
ccopy_reg
_reconstructor
p3
(cuuid
UUID
p4
c__builtin__
object
p5
Ntp6
Rp7
(dp8
S'int'
p9
L80950811884249084224552658667817317920L
sbaI0
aF52974.242664164165
aF100299.43775467828
aF189.33623721727787
aF56.93484714531297
aF44.282353986517315
aF94.44195238843783
aF73.45434609087032
aF51874.36121032991
asS'ee4a0c0e-57fb-4760-b5ee-7be841a38d6e'
p10
(lp11
g3
(g4
g5
Ntp12
Rp13
(dp14
g9
L80950838029542713932799907728269686304L
sbaI0
aF25827.755172632365
aF2863.4806861523266
aF11.086835332814875
aF56.93484714531297
aF44.282353986517315
aF94.44195238843783
aF73.45434609087032
aF2863.4806861523266
as.