(dp0
S'5401233d-3c79-4ef4-afc9-51213df45b81'
p1
(lp2
ccopy_reg
_reconstructor
p3
(cuuid
UUID
p4
c__builtin__
object
p5
Ntp6
Rp7
(dp8
S'int'
p9
L317021369466030810554254088402350290464L
sbaI0
aF16152.853987005927
aF2621.8115056829774
aF16.23125862334965
aF61.08055793816811
aF59.057279984368684
aF86.87596904010627
aF83.9982246512658
aF2475.21526920566
asS'a7b82e09-29d1-49c1-8aa0-1647c741baf2'
p10
(lp11
g3
(g4
g5
Ntp12
Rp13
(dp14
g9
L317021321374536164394621507493778077216L
sbaI0
aF16527.964922752773
aF23506.009036890606
aF142.21962078665655
aF61.08055793816811
aF59.057279984368684
aF86.87596904010627
aF83.9982246512658
aF15371.782729705257
asS'f147fab8-e0dc-4260-b614-3f7a7334e88c'
p15
(lp16
g3
(g4
g5
Ntp17
Rp18
(dp19
g9
L317021351402009757302162446309657327136L
sbaI0
aF16715.782705965867
aF16737.509150444817
aF100.1299756335741
aF61.08055793816811
aF59.057279984368684
aF86.87596904010627
aF83.9982246512658
aF15145.925437417509
asS'170c07e8-654b-4bcd-ac4a-fd5fc736961b'
p20
(lp21
g3
(g4
g5
Ntp22
Rp23
(dp24
g9
L317021345935266543818294136374429398560L
sbaI0
aF14677.067885948825
aF1031.3421443095167
aF7.026894965150894
aF61.08055793816811
aF59.057279984368684
aF86.87596904010627
aF83.9982246512658
aF972.9629721161116
asS'590f12d9-048b-4408-9515-9e0daa4f249b'
p25
(lp26
g3
(g4
g5
Ntp27
Rp28
(dp29
g9
L317021314323229700626796977902582412832L
sbaI0
aF70499.34606255067
aF74232.4432897371
aF105.29522248883589
aF61.08055793816811
aF59.057279984368684
aF86.87596904010627
aF83.9982246512658
aF68774.10762315687
asS'37e3c252-8fd6-4717-8058-2072d6138c3f'
p30
(lp31
g3
(g4
g5
Ntp32
Rp33
(dp34
g9
L317021305608131824055069192757063628320L
sbaI0
aF15870.602681506922
aF17896.59481712839
aF112.76569123605013
aF61.08055793816811
aF59.057279984368684
aF86.87596904010627
aF83.9982246512658
aF14627.447304213338
as.