(dp0
S'5401233d-3c79-4ef4-afc9-51213df45b81'
p1
(lp2
ccopy_reg
_reconstructor
p3
(cuuid
UUID
p4
c__builtin__
object
p5
Ntp6
Rp7
(dp8
S'int'
p9
L317021369466030810554254088402350290464L
sbaI0
aF16752.546316447704
aF2621.8115056829774
aF15.650226873922291
aF55.73845998897225
aF54.31019583744303
aF82.22108277936763
aF80.11421751870344
aF2379.851922469637
asS'a7b82e09-29d1-49c1-8aa0-1647c741baf2'
p10
(lp11
g3
(g4
g5
Ntp12
Rp13
(dp14
g9
L317021321374536164394621507493778077216L
sbaI0
aF17141.58365498613
aF23506.009036890606
aF137.12857289036532
aF55.73845998897225
aF54.31019583744303
aF82.22108277936763
aF80.11421751870344
aF14508.919918396083
asS'f147fab8-e0dc-4260-b614-3f7a7334e88c'
p15
(lp16
g3
(g4
g5
Ntp17
Rp18
(dp19
g9
L317021351402009757302162446309657327136L
sbaI0
aF17336.374378338234
aF16737.509150444817
aF96.54561435497322
aF55.73845998897225
aF54.31019583744303
aF82.22108277936763
aF80.11421751870344
aF13582.419049285701
asS'f7ef7f2b-0a8b-4ea0-ae01-f0514a7d1a52'
p20
(lp21
g3
(g4
g5
Ntp22
Rp23
(dp24
g9
L317021333417216866563543352701021238816L
sbaF263.2803819875431
aF10653.093777963855
aF4331.68295597365
aF40.661267480192706
aF55.73845998897225
aF54.31019583744303
aF82.22108277936763
aF80.11421751870344
aF2272.31475218618
asS'590f12d9-048b-4408-9515-9e0daa4f249b'
p25
(lp26
g3
(g4
g5
Ntp27
Rp28
(dp29
g9
L317021345935266543818294136374429398560L
sbaI0
aF73116.71121042986
aF1031.3421443095167
aF1.410542305905027
aF55.73845998897225
aF54.31019583744303
aF82.22108277936763
aF80.11421751870344
aF828.3282423859438
asS'37e3c252-8fd6-4717-8058-2072d6138c3f'
p30
(lp31
g3
(g4
g5
Ntp32
Rp33
(dp34
g9
L317021305608131824055069192757063628320L
sbaI0
aF16459.81612325373
aF17896.59481712839
aF108.72900816823122
aF55.73845998897225
aF54.31019583744303
aF82.22108277936763
aF80.11421751870344
aF12719.393533077617
as.