(dp0
S'5401233d-3c79-4ef4-afc9-51213df45b81'
p1
(lp2
ccopy_reg
_reconstructor
p3
(cuuid
UUID
p4
c__builtin__
object
p5
Ntp6
Rp7
(dp8
S'int'
p9
L317021369466030810554254088402350290464L
sbaI0
aF17325.883447767574
aF2621.8115056829774
aF15.132339505728327
aF61.17601065573864
aF60.15980912390852
aF93.33057478812916
aF91.78025020746962
aF1779.4940630262663
asS'a7b82e09-29d1-49c1-8aa0-1647c741baf2'
p10
(lp11
g3
(g4
g5
Ntp12
Rp13
(dp14
g9
L317021321374536164394621507493778077216L
sbaI0
aF17728.235153414196
aF23506.009036890606
aF132.59080124714893
aF61.17601065573864
aF60.15980912390852
aF93.33057478812916
aF91.78025020746962
aF17728.110143194812
asS'f147fab8-e0dc-4260-b614-3f7a7334e88c'
p15
(lp16
g3
(g4
g5
Ntp17
Rp18
(dp19
g9
L317021351402009757302162446309657327136L
sbaI0
aF17929.69237106663
aF16737.509150444817
aF93.3507882012206
aF61.17601065573864
aF60.15980912390852
aF93.33057478812916
aF91.78025020746962
aF16731.905052832844
asS'f7ef7f2b-0a8b-4ea0-ae01-f0514a7d1a52'
p20
(lp21
g3
(g4
g5
Ntp22
Rp23
(dp24
g9
L317021333417216866563543352701021238816L
sbaF263.2803819875431
aF11017.683978818444
aF4331.68295597365
aF39.315730640861844
aF61.17601065573864
aF60.15980912390852
aF93.33057478812916
aF91.78025020746962
aF4342.345102161231
asS'590f12d9-048b-4408-9515-9e0daa4f249b'
p25
(lp26
g3
(g4
g5
Ntp27
Rp28
(dp29
g9
L317021345935266543818294136374429398560L
sbaI0
aF75619.04874557666
aF1031.3421443095167
aF1.3638655357587333
aF61.17601065573864
aF60.15980912390852
aF93.33057478812916
aF91.78025020746962
aF954.1143364086729
asS'37e3c252-8fd6-4717-8058-2072d6138c3f'
p30
(lp31
g3
(g4
g5
Ntp32
Rp33
(dp34
g9
L317021305608131824055069192757063628320L
sbaI0
aF17023.13489163068
aF17896.59481712839
aF105.1310168841295
aF61.17601065573864
aF60.15980912390852
aF93.33057478812916
aF91.78025020746962
aF16698.818442098876
as.