(dp0
S'104d40b1-bfca-440e-a184-35e548e21935'
p1
(lp2
ccopy_reg
_reconstructor
p3
(cuuid
UUID
p4
c__builtin__
object
p5
Ntp6
Rp7
(dp8
S'int'
p9
L329476335224222516389614992071657698848L
sbaF5016.191157877462
aF24084.13602621512
aF5220.726494562057
aF21.67703457944016
aF86.2549105024184
aF74.88627310688713
aF94.2156530909878
aF81.79776765425578
aF14878.914932629152
asS'f24dd147-92e7-4e5a-bdc3-792421d81442'
p10
(lp11
g3
(g4
g5
Ntp12
Rp13
(dp14
g9
L329476290143398045771685247621052151328L
sbaI0
aF23571.527374337144
aF19116.91016086321
aF81.10170315766734
aF86.2549105024184
aF74.88627310688713
aF94.2156530909878
aF81.79776765425578
aF22827.776644003075
as.