(dp0
S'104d40b1-bfca-440e-a184-35e548e21935'
p1
(lp2
ccopy_reg
_reconstructor
p3
(cuuid
UUID
p4
c__builtin__
object
p5
Ntp6
Rp7
(dp8
S'int'
p9
L329476335224222516389614992071657698848L
sbaF5016.191157877462
aF24440.189094201018
aF5220.726494562057
aF21.361236095349163
aF85.31458767442331
aF74.0820562999047
aF94.56621799019989
aF82.11561558445291
aF14545.800820316254
asS'f24dd147-92e7-4e5a-bdc3-792421d81442'
p10
(lp11
g3
(g4
g5
Ntp12
Rp13
(dp14
g9
L329476290143398045771685247621052151328L
sbaI0
aF23920.00218072465
aF19116.91016086321
aF79.92018569408037
aF85.31458767442331
aF74.0820562999047
aF94.56621799019989
aF82.11561558445291
aF22795.634343680045
as.