(dp0
S'104d40b1-bfca-440e-a184-35e548e21935'
p1
(lp2
ccopy_reg
_reconstructor
p3
(cuuid
UUID
p4
c__builtin__
object
p5
Ntp6
Rp7
(dp8
S'int'
p9
L329476335224222516389614992071657698848L
sbaF5016.191157877462
aF25603.365411498038
aF5220.726494562057
aF20.390782268871252
aF82.85138402375847
aF71.8536277749044
aF96.20662616777904
aF83.43608483542843
aF14867.683337142385
asS'f24dd147-92e7-4e5a-bdc3-792421d81442'
p10
(lp11
g3
(g4
g5
Ntp12
Rp13
(dp14
g9
L329476290143398045771685247621052151328L
sbaI0
aF25058.421361487595
aF19116.91016086321
aF76.2893635041355
aF82.85138402375847
aF71.8536277749044
aF96.20662616777904
aF83.43608483542843
aF22758.26592298047
as.