(dp0
S'e6c80f54-a553-4a09-a2a2-be3089d67f81'
p1
(lp2
ccopy_reg
_reconstructor
p3
(cuuid
UUID
p4
c__builtin__
object
p5
Ntp6
Rp7
(dp8
S'int'
p9
L273688840453300623116666256932815418912L
sbaI0
aF20149.75131683131
aF20003.15317010016
aF99.27245679400174
aF94.37855788382265
aF92.96754207562388
aF96.86253887905167
aF95.4143860714102
aF19185.686496181723
asS'd3c47541-2039-49d0-8472-4c0c55b619b5'
p10
(lp11
g3
(g4
g5
Ntp12
Rp13
(dp14
g9
L273688796006301452617749722250257020448L
sbaI0
aF18458.00911048917
aF22236.082230416385
aF120.46847575657682
aF94.37855788382265
aF92.96754207562388
aF96.86253887905167
aF95.4143860714102
aF18284.205249969727
as.