(dp0
S'e6c80f54-a553-4a09-a2a2-be3089d67f81'
p1
(lp2
ccopy_reg
_reconstructor
p3
(cuuid
UUID
p4
c__builtin__
object
p5
Ntp6
Rp7
(dp8
S'int'
p9
L273688840453300623116666256932815418912L
sbaI0
aF20657.582103530443
aF20003.15317010016
aF96.83201581796719
aF89.19036435574942
aF88.08782241859596
aF93.8448071758397
aF92.6847285480325
aF19450.848713646043
asS'd3c47541-2039-49d0-8472-4c0c55b619b5'
p10
(lp11
g3
(g4
g5
Ntp12
Rp13
(dp14
g9
L273688796006301452617749722250257020448L
sbaI0
aF18923.203203462916
aF22236.082230416385
aF117.50696745859189
aF89.19036435574942
aF88.08782241859596
aF93.8448071758397
aF92.6847285480325
aF17681.545291567156
as.