(dp0
S'e6c80f54-a553-4a09-a2a2-be3089d67f81'
p1
(lp2
ccopy_reg
_reconstructor
p3
(cuuid
UUID
p4
c__builtin__
object
p5
Ntp6
Rp7
(dp8
S'int'
p9
L273688840453300623116666256932815418912L
sbaI0
aF19629.01731983339
aF20003.15317010016
aF101.90603454146803
aF89.28874561528329
aF87.99032314141402
aF89.27052742509628
aF87.97236987719734
aF16516.892557470732
asS'd3c47541-2039-49d0-8472-4c0c55b619b5'
p10
(lp11
g3
(g4
g5
Ntp12
Rp13
(dp14
g9
L273688796006301452617749722250257020448L
sbaI0
aF17980.995140956944
aF22236.082230416385
aF123.6643581520538
aF89.28874561528329
aF87.99032314141402
aF89.27052742509628
aF87.97236987719734
aF17752.02590199542
as.