(dp0
S'590f12d9-048b-4408-9515-9e0daa4f249b'
p1
(lp2
ccopy_reg
_reconstructor
p3
(cuuid
UUID
p4
c__builtin__
object
p5
Ntp6
Rp7
(dp8
S'int'
p9
L114224054766833686984449684183123146272L
sbaI0
aF74624.63420953651
aF86167.17371548236
aF115.46746543981156
aF71.05924691805784
aF65.01706164836449
aF87.5193467180485
aF80.07755510769306
aF71413.7081711465
asS'f147fab8-e0dc-4260-b614-3f7a7334e88c'
p10
(lp11
g3
(g4
g5
Ntp12
Rp13
(dp14
g9
L114224084794307279893430086029900690976L
sbaI0
aF17693.911215176882
aF18611.11502698709
aF105.18372563677995
aF71.05924691805784
aF65.01706164836449
aF87.5193467180485
aF80.07755510769306
aF15381.980631138786
asS'a7b82e09-29d1-49c1-8aa0-1647c741baf2'
p15
(lp16
g3
(g4
g5
Ntp17
Rp18
(dp19
g9
L114224097312356957144185050933924378144L
sbaI0
aF17495.10322399512
aF28411.061986731525
aF162.3943661433492
aF71.05924691805784
aF65.01706164836449
aF87.5193467180485
aF80.07755510769306
aF15395.377400363443
asS'cb45cd08-acb1-45ad-bb4e-c7ee5ca7d632'
p20
(lp21
g3
(g4
g5
Ntp22
Rp23
(dp24
g9
L114224140095564714849518610083255858720L
sbaF3538.4649981669436
aF16491.067335568776
aF2168.290460382685
aF13.148272432955297
aF71.05924691805784
aF65.01706164836449
aF87.5193467180485
aF80.07755510769306
aF16491.067335568776
asS'37e3c252-8fd6-4717-8058-2072d6138c3f'
p25
(lp26
g3
(g4
g5
Ntp27
Rp28
(dp29
g9
L114224103809066283317289380295840806432L
sbaI0
aF16799.275254858934
aF16422.36047010316
aF97.75636282495725
aF71.05924691805784
aF65.01706164836449
aF87.5193467180485
aF80.07755510769306
aF13899.84131737471
as.