(dp0
S'590f12d9-048b-4408-9515-9e0daa4f249b'
p1
(lp2
ccopy_reg
_reconstructor
p3
(cuuid
UUID
p4
c__builtin__
object
p5
Ntp6
Rp7
(dp8
S'int'
p9
L114224054766833686984449684183123146272L
sbaI0
aF75963.5594098627
aF86167.17371548236
aF113.43224881099354
aF74.4753482800442
aF67.9938152863451
aF93.37252438476676
aF85.24638450786196
aF71314.18292398931
asS'f147fab8-e0dc-4260-b614-3f7a7334e88c'
p10
(lp11
g3
(g4
g5
Ntp12
Rp13
(dp14
g9
L114224084794307279893430086029900690976L
sbaI0
aF18011.37774441724
aF18611.11502698709
aF103.32976905531694
aF74.4753482800442
aF67.9938152863451
aF93.37252438476676
aF85.24638450786196
aF18006.12831189645
asS'a7b82e09-29d1-49c1-8aa0-1647c741baf2'
p15
(lp16
g3
(g4
g5
Ntp17
Rp18
(dp19
g9
L114224097312356957144185050933924378144L
sbaI0
aF17809.002713581092
aF28411.061986731525
aF159.53202121231266
aF74.4753482800442
aF67.9938152863451
aF93.37252438476676
aF85.24638450786196
aF17696.467486586407
asS'cb45cd08-acb1-45ad-bb4e-c7ee5ca7d632'
p20
(lp21
g3
(g4
g5
Ntp22
Rp23
(dp24
g9
L114224140095564714849518610083255858720L
sbaF3538.4649981669436
aF16786.952278520315
aF2168.290460382685
aF12.916522453912693
aF74.4753482800442
aF67.9938152863451
aF93.37252438476676
aF85.24638450786196
aF16685.26545518997
asS'37e3c252-8fd6-4717-8058-2072d6138c3f'
p25
(lp26
g3
(g4
g5
Ntp27
Rp28
(dp29
g9
L114224103809066283317289380295840806432L
sbaI0
aF17100.690105654583
aF16422.36047010316
aF96.03332010953686
aF74.4753482800442
aF67.9938152863451
aF93.37252438476676
aF85.24638450786196
aF16394.231042504784
as.