(dp0
S'590f12d9-048b-4408-9515-9e0daa4f249b'
p1
(lp2
ccopy_reg
_reconstructor
p3
(cuuid
UUID
p4
c__builtin__
object
p5
Ntp6
Rp7
(dp8
S'int'
p9
L114224054766833686984449684183123146272L
sbaI0
aF70369.54818514214
aF86167.17371548236
aF122.44951962570045
aF70.54933875099078
aF64.68485118120343
aF81.93679295933867
aF75.12571134857683
aF65785.86881606077
asS'f147fab8-e0dc-4260-b614-3f7a7334e88c'
p10
(lp11
g3
(g4
g5
Ntp12
Rp13
(dp14
g9
L114224084794307279893430086029900690976L
sbaI0
aF16685.00691532902
aF18611.11502698709
aF111.54394554004345
aF70.54933875099078
aF64.68485118120343
aF81.93679295933867
aF75.12571134857683
aF15742.720702649123
asS'a7b82e09-29d1-49c1-8aa0-1647c741baf2'
p15
(lp16
g3
(g4
g5
Ntp17
Rp18
(dp19
g9
L114224097312356957144185050933924378144L
sbaI0
aF16497.534927516346
aF28411.061986731525
aF172.2139829468979
aF70.54933875099078
aF64.68485118120343
aF81.93679295933867
aF75.12571134857683
aF15793.824313158368
asS'cb45cd08-acb1-45ad-bb4e-c7ee5ca7d632'
p20
(lp21
g3
(g4
g5
Ntp22
Rp23
(dp24
g9
L114224140095564714849518610083255858720L
sbaF3538.4649981669436
aF15550.749022585245
aF2168.290460382685
aF13.943318468027183
aF70.54933875099078
aF64.68485118120343
aF81.93679295933867
aF75.12571134857683
aF13514.211781736885
asS'37e3c252-8fd6-4717-8058-2072d6138c3f'
p25
(lp26
g3
(g4
g5
Ntp27
Rp28
(dp29
g9
L114224103809066283317289380295840806432L
sbaI0
aF15841.382970171937
aF16422.36047010316
aF103.66746704517628
aF70.54933875099078
aF64.68485118120343
aF81.93679295933867
aF75.12571134857683
aF14580.760127147661
as.