(dp0
S'a7b82e09-29d1-49c1-8aa0-1647c741baf2'
p1
(lp2
ccopy_reg
_reconstructor
p3
(cuuid
UUID
p4
c__builtin__
object
p5
Ntp6
Rp7
(dp8
S'int'
p9
L310597332409609413524162568145234212384L
sbaI0
aF11976.238145343841
aF12261.685458036522
aF102.38344719960047
aF91.14140069763351
aF80.98145996112304
aF90.93136867420812
aF80.79484114941523
aF11631.689332161379
asS'f147fab8-e0dc-4260-b614-3f7a7334e88c'
p10
(lp11
g3
(g4
g5
Ntp12
Rp13
(dp14
g9
L310597375430501658770291793640458728992L
sbaI0
aF12112.331760631841
aF13032.780632126487
aF107.59927064156498
aF91.14140069763351
aF80.98145996112304
aF90.93136867420812
aF80.79484114941523
aF11747.606537585627
asS'37e3c252-8fd6-4717-8058-2072d6138c3f'
p15
(lp16
g3
(g4
g5
Ntp17
Rp18
(dp19
g9
L310597313394850410105013476139570214432L
sbaI0
aF11499.910491835848
aF15101.07242917905
aF131.31469536132286
aF91.14140069763351
aF80.98145996112304
aF90.93136867420812
aF80.79484114941523
aF10900.655148847858
as.