(dp0
S'28d371a4-724f-461e-82d2-f1dce9a5e0dd'
p1
(lp2
ccopy_reg
_reconstructor
p3
(cuuid
UUID
p4
c__builtin__
object
p5
Ntp6
Rp7
(dp8
S'int'
p9
L314957509346050594868869820521829283360L
sbaI0
aF24915.51270635847
aF11698.722038870732
aF46.953567348767436
aF49.07382568899257
aF39.80456901756928
aF85.36364677225403
aF69.23982636022085
aF14339.017598574732
asS'e6c80f54-a553-4a09-a2a2-be3089d67f81'
p10
(lp11
g3
(g4
g5
Ntp12
Rp13
(dp14
g9
L314957548326306551891267356911074981408L
sbaI0
aF43806.37275011387
aF37549.150259062095
aF85.71618214832564
aF49.07382568899257
aF39.80456901756928
aF85.36364677225403
aF69.23982636022085
aF32414.318570616488
asS'd3c47541-2039-49d0-8472-4c0c55b619b5'
p15
(lp16
g3
(g4
g5
Ntp17
Rp18
(dp19
g9
L314957579146061769936010478887600043552L
sbaI0
aF40128.45690277436
aF1761.9646167449473
aF4.390810792983995
aF49.07382568899257
aF39.80456901756928
aF85.36364677225403
aF69.23982636022085
aF2253.064782730043
as.