(dp0
S'd539f89b-8086-4333-b4e5-69b4e1a91586'
p1
(lp2
ccopy_reg
_reconstructor
p3
(cuuid
UUID
p4
c__builtin__
object
p5
Ntp6
Rp7
(dp8
S'int'
p9
L314957579146061769936010478887600043552L
sbaI0
aF10163.093978582998
aF1761.9646167449473
aF17.336891899828828
aF43.9418335095865
aF36.190856468916856
aF94.33733055234022
aF77.6970034474248
aF2350.9866535780343
asS'28d371a4-724f-461e-82d2-f1dce9a5e0dd'
p10
(lp11
g3
(g4
g5
Ntp12
Rp13
(dp14
g9
L314957509346050594868869820521829283360L
sbaI0
aF30750.50079496102
aF11698.722038870732
aF38.0440049314181
aF43.9418335095865
aF36.190856468916856
aF94.33733055234022
aF77.6970034474248
aF14971.962157737089
asS'e6c80f54-a553-4a09-a2a2-be3089d67f81'
p15
(lp16
g3
(g4
g5
Ntp17
Rp18
(dp19
g9
L314957548326306551891267356911074981408L
sbaI0
aF54065.42967638639
aF37549.150259062095
aF69.45131201918859
aF43.9418335095865
aF36.190856468916856
aF94.33733055234022
aF77.6970034474248
aF35433.77853937584
asS'd3c47541-2039-49d0-8472-4c0c55b619b5'
p20
(lp21
g3
(g4
g5
Ntp22
Rp23
(dp24
g9
L314957533114499349152378023586931848736L
sbaF1795.197086749272
aF49526.17914920174
aF39088.99425446666
aF78.92592347313492
aF43.9418335095865
aF36.190856468916856
aF94.33733055234022
aF77.6970034474248
aF40673.12371011627
as.