(dp0
S'd539f89b-8086-4333-b4e5-69b4e1a91586'
p1
(lp2
ccopy_reg
_reconstructor
p3
(cuuid
UUID
p4
c__builtin__
object
p5
Ntp6
Rp7
(dp8
S'int'
p9
L314957579146061769936010478887600043552L
sbaI0
aF9840.432796877909
aF1761.9646167449473
aF17.905356940235077
aF45.232347242556365
aF37.13733072031747
aF94.0248809200975
aF77.19769836270792
aF1965.15973968438
asS'28d371a4-724f-461e-82d2-f1dce9a5e0dd'
p10
(lp11
g3
(g4
g5
Ntp12
Rp13
(dp14
g9
L314957509346050594868869820521829283360L
sbaI0
aF29774.223989351016
aF11698.722038870732
aF39.29144229940257
aF45.232347242556365
aF37.13733072031747
aF94.0248809200975
aF77.19769836270792
aF13512.779746836637
asS'e6c80f54-a553-4a09-a2a2-be3089d67f81'
p15
(lp16
g3
(g4
g5
Ntp17
Rp18
(dp19
g9
L314957548326306551891267356911074981408L
sbaI0
aF52348.94299767041
aF37549.150259062095
aF71.72857389065732
aF45.232347242556365
aF37.13733072031747
aF94.0248809200975
aF77.19769836270792
aF37549.150259062095
asS'd3c47541-2039-49d0-8472-4c0c55b619b5'
p20
(lp21
g3
(g4
g5
Ntp22
Rp23
(dp24
g9
L314957533114499349152378023586931848736L
sbaF1795.197086749272
aF47953.80605855683
aF39088.99425446666
aF81.5138514901919
aF45.232347242556365
aF37.13733072031747
aF94.0248809200975
aF77.19769836270792
aF37167.67726027104
as.