(dp0
S'9e53c6df-b341-4064-a40e-7f674bda1c48'
p1
(lp2
ccopy_reg
_reconstructor
p3
(cuuid
UUID
p4
c__builtin__
object
p5
Ntp6
Rp7
(dp8
S'int'
p9
L156346761181335551075097426360252675616L
sbaF284.07887586883317
aF42513.349210384
aF91488.40683969758
aF215.19924574032686
aF50.297497325722006
aF41.241857596149764
aF87.98879415658676
aF72.14715466185066
aF37542.82202649154
asS'e6c80f54-a553-4a09-a2a2-be3089d67f81'
p10
(lp11
g3
(g4
g5
Ntp12
Rp13
(dp14
g9
L156346786296663068096684152030919046688L
sbaI0
aF46304.87349946965
aF38388.36973448118
aF82.90351929137839
aF50.297497325722006
aF41.241857596149764
aF87.98879415658676
aF72.14715466185066
aF33654.86522072495
as.