(dp0
S'9e53c6df-b341-4064-a40e-7f674bda1c48'
p1
(lp2
ccopy_reg
_reconstructor
p3
(cuuid
UUID
p4
c__builtin__
object
p5
Ntp6
Rp7
(dp8
S'int'
p9
L156346761181335551075097426360252675616L
sbaF284.07887586883317
aF42369.666767489136
aF91488.40683969758
aF215.92902144299603
aF51.04471443249042
aF40.47299895988347
aF88.99415759815216
aF70.56284843496158
aF40073.47869363175
asS'e6c80f54-a553-4a09-a2a2-be3089d67f81'
p10
(lp11
g3
(g4
g5
Ntp12
Rp13
(dp14
g9
L156346786296663068096684152030919046688L
sbaI0
aF46148.37683510622
aF38388.36973448118
aF83.18465863197639
aF51.04471443249042
aF40.47299895988347
aF88.99415759815216
aF70.56284843496158
aF35855.23142461052
as.