(dp0
S'9e53c6df-b341-4064-a40e-7f674bda1c48'
p1
(lp2
ccopy_reg
_reconstructor
p3
(cuuid
UUID
p4
c__builtin__
object
p5
Ntp6
Rp7
(dp8
S'int'
p9
L156346761181335551075097426360252675616L
sbaF284.07887586883317
aF45644.99041992667
aF91488.40683969758
aF200.43471583194292
aF51.99637046992357
aF43.90212843971405
aF97.66114669530161
aF82.45829789729146
aF45151.64194065351
asS'e6c80f54-a553-4a09-a2a2-be3089d67f81'
p10
(lp11
g3
(g4
g5
Ntp12
Rp13
(dp14
g9
L156346786296663068096684152030919046688L
sbaI0
aF49715.808011732894
aF38388.36973448118
aF77.21562068431344
aF51.99637046992357
aF43.90212843971405
aF97.66114669530161
aF82.45829789729146
aF37927.229542842106
as.