(dp0
S'72cd46c7-5ea7-4dc6-a8a4-0d6d50e0acec'
p1
(lp2
ccopy_reg
_reconstructor
p3
(cuuid
UUID
p4
c__builtin__
object
p5
Ntp6
Rp7
(dp8
S'int'
p9
L148229895986698773351584531675817358880L
sbaI0
aF66731.9288655055
aF89849.32176559353
aF134.6421769804974
aF33.73731661610479
aF23.841247661903846
aF91.53532652973523
aF64.68553543961787
aF51512.5355034552
asS'c2eddf15-d5d9-4218-a80f-73fa5e29d9ea'
p10
(lp11
g3
(g4
g5
Ntp12
Rp13
(dp14
g9
L148229945108159532195473839673066567200L
sbaF4706.884512286038
aF71653.16955151777
aF11965.518996604995
aF16.69921801296163
aF33.73731661610479
aF23.841247661903846
aF91.53532652973523
aF64.68553543961787
aF7575.638475025036
as.