(dp0
S'72cd46c7-5ea7-4dc6-a8a4-0d6d50e0acec'
p1
(lp2
ccopy_reg
_reconstructor
p3
(cuuid
UUID
p4
c__builtin__
object
p5
Ntp6
Rp7
(dp8
S'int'
p9
L148229895986698773351584531675817358880L
sbaI0
aF74668.59622171723
aF89849.32176559353
aF120.33080345959553
aF31.545536179827295
aF22.468318811178325
aF95.76800052299775
aF68.21079075637341
aF51681.377253818886
asS'c2eddf15-d5d9-4218-a80f-73fa5e29d9ea'
p10
(lp11
g3
(g4
g5
Ntp12
Rp13
(dp14
g9
L148229945108159532195473839673066567200L
sbaF4706.884512286038
aF80175.13769205798
aF11965.518996604995
aF14.924226313851758
aF31.545536179827295
aF22.468318811178325
aF95.76800052299775
aF68.21079075637341
aF8710.612144476707
as.