(dp0
S'72cd46c7-5ea7-4dc6-a8a4-0d6d50e0acec'
p1
(lp2
ccopy_reg
_reconstructor
p3
(cuuid
UUID
p4
c__builtin__
object
p5
Ntp6
Rp7
(dp8
S'int'
p9
L148229895986698773351584531675817358880L
sbaI0
aF72625.85229498745
aF89849.32176559353
aF123.7153423007675
aF32.52855384074934
aF23.183882540211894
aF96.0506963743774
aF68.45764104826321
aF52687.41174237428
asS'c2eddf15-d5d9-4218-a80f-73fa5e29d9ea'
p10
(lp11
g3
(g4
g5
Ntp12
Rp13
(dp14
g9
L148229945108159532195473839673066567200L
sbaF4706.884512286038
aF77981.74871888297
aF11965.518996604995
aF15.343999324431143
aF32.52855384074934
aF23.183882540211894
aF96.0506963743774
aF68.45764104826321
aF8148.929659230806
as.