(dp0
S'480c3c42-0e7e-483e-bd06-d5391c075842'
p1
(lp2
ccopy_reg
_reconstructor
p3
(cuuid
UUID
p4
c__builtin__
object
p5
Ntp6
Rp7
(dp8
S'int'
p9
L67282406445284330635096558027796035104L
sbaI0
aF40649.67759210081
aF47540.07790800212
aF116.9506887238886
aF56.32219817762303
aF50.7250853081126
aF94.3057166006293
aF84.93392790749022
aF29555.860351961546
asS'9624ce3b-a91c-4fc2-bca0-defc7f924875'
p10
(lp11
g3
(g4
g5
Ntp12
Rp13
(dp14
g9
L67282413734275281949382282296116819488L
sbaF856.9879516441711
aF27586.436882492373
aF21871.067710203966
aF79.2819594765584
aF56.32219817762303
aF50.7250853081126
aF94.3057166006293
aF84.93392790749022
aF23573.49116435573
asS'ce24ba10-a7c7-4d37-bd7a-7013f8cbc96a'
p15
(lp16
g3
(g4
g5
Ntp17
Rp18
(dp19
g9
L67282444712486825025303884890483897888L
sbaI0
aF80475.87263194387
aF43403.03169208597
aF53.93297428483886
aF56.32219817762303
aF50.7250853081126
aF94.3057166006293
aF84.93392790749022
aF52385.62872342071
as.