(dp0
S'480c3c42-0e7e-483e-bd06-d5391c075842'
p1
(lp2
ccopy_reg
_reconstructor
p3
(cuuid
UUID
p4
c__builtin__
object
p5
Ntp6
Rp7
(dp8
S'int'
p9
L67282406445284330635096558027796035104L
sbaI0
aF39298.34383860568
aF47540.07790800212
aF120.97221731084751
aF57.106606247967775
aF51.78740221207914
aF92.44042157370293
aF83.83004361884791
aF30697.288352294836
asS'9624ce3b-a91c-4fc2-bca0-defc7f924875'
p10
(lp11
g3
(g4
g5
Ntp12
Rp13
(dp14
g9
L67282413734275281949382282296116819488L
sbaF856.9879516441711
aF26669.369749216537
aF21871.067710203966
aF82.00819110412787
aF57.106606247967775
aF51.78740221207914
aF92.44042157370293
aF83.83004361884791
aF22954.39333250026
asS'ce24ba10-a7c7-4d37-bd7a-7013f8cbc96a'
p15
(lp16
g3
(g4
g5
Ntp17
Rp18
(dp19
g9
L67282444712486825025303884890483897888L
sbaI0
aF77800.58049012738
aF43403.03169208597
aF55.787542224821394
aF57.106606247967775
aF51.78740221207914
aF92.44042157370293
aF83.83004361884791
aF54470.32062124328
as.