(dp0
S'f24dd147-92e7-4e5a-bdc3-792421d81442'
p1
(lp2
ccopy_reg
_reconstructor
p3
(cuuid
UUID
p4
c__builtin__
object
p5
Ntp6
Rp7
(dp8
S'int'
p9
L55648963287873402367592711615324796448L
sbaI0
aF23798.01159873891
aF20092.242213289686
aF84.42823943473665
aF82.1448457826537
aF85.14691353834668
aF90.10235375638972
aF93.39523681371259
aF23119.749682282534
as.