(dp0
S'f24dd147-92e7-4e5a-bdc3-792421d81442'
p1
(lp2
ccopy_reg
_reconstructor
p3
(cuuid
UUID
p4
c__builtin__
object
p5
Ntp6
Rp7
(dp8
S'int'
p9
L55648963287873402367592711615324796448L
sbaI0
aF23668.491258404578
aF20092.242213289686
aF84.89025343410944
aF81.18705329195745
aF84.20671771410323
aF88.56711527303894
aF91.8612730989219
aF23002.300338957077
as.