(dp0
S'f24dd147-92e7-4e5a-bdc3-792421d81442'
p1
(lp2
ccopy_reg
_reconstructor
p3
(cuuid
UUID
p4
c__builtin__
object
p5
Ntp6
Rp7
(dp8
S'int'
p9
L55648963287873402367592711615324796448L
sbaI0
aF24182.141101010042
aF20092.242213289686
aF83.08711015026901
aF80.24552944619583
aF83.14111064997876
aF89.43978437061804
aF92.66713124316381
aF23593.79783188005
as.