(dp0
S'c2eddf15-d5d9-4218-a80f-73fa5e29d9ea'
p1
(lp2
ccopy_reg
_reconstructor
p3
(cuuid
UUID
p4
c__builtin__
object
p5
Ntp6
Rp7
(dp8
S'int'
p9
L92367147058668586578374462751155861024L
sbaI0
aF86943.07272588462
aF41446.270439928645
aF47.67058391253441
aF40.51363859213574
aF33.97653123047334
aF92.86144249921176
aF77.87771750014385
aF39841.011922289326
asS'65127aaa-525f-40ec-855f-cd816c7dae9e'
p10
(lp11
g3
(g4
g5
Ntp12
Rp13
(dp14
g9
L92367177086142179488316664593353717280L
sbaI0
aF41853.31063940039
aF51388.06197379538
aF122.78135513948818
aF40.51363859213574
aF33.97653123047334
aF92.86144249921176
aF77.87771750014385
aF40423.31188741689
asS'104d40b1-bfca-440e-a184-35e548e21935'
p15
(lp16
g3
(g4
g5
Ntp17
Rp18
(dp19
g9
L92367196100901182908207443162650293792L
sbaI0
aF84522.68651775434
aF19934.085608073525
aF23.584301954110614
aF40.51363859213574
aF33.97653123047334
aF92.86144249921176
aF77.87771750014385
aF84522.68651775434
asS'f24dd147-92e7-4e5a-bdc3-792421d81442'
p20
(lp21
g3
(g4
g5
Ntp22
Rp23
(dp24
g9
L92367183582851505658249896867647895072L
sbaI0
aF82723.69898746417
aF10364.870999349034
aF12.52950620706614
aF40.51363859213574
aF33.97653123047334
aF92.86144249921176
aF77.87771750014385
aF28208.679828693872
asS'47b23439-8958-4211-9e48-2366e1abcdb9'
p25
(lp26
g3
(g4
g5
Ntp27
Rp28
(dp29
g9
L92367202439154184052389032370083903008L
sbaI0
aF15576.201734809956
aF16019.916282706527
aF102.84866975563722
aF40.51363859213574
aF33.97653123047334
aF92.86144249921176
aF77.87771750014385
aF11791.034392461665
as.