(dp0
S'47b23439-8958-4211-9e48-2366e1abcdb9'
p1
(lp2
ccopy_reg
_reconstructor
p3
(cuuid
UUID
p4
c__builtin__
object
p5
Ntp6
Rp7
(dp8
S'int'
p9
L92367202439154184052389032370083903008L
sbaI0
aF14387.336926626604
aF16019.916282706527
aF111.34733526020727
aF41.878601645371674
aF34.547853655330115
aF88.66356689562788
aF73.14322382605758
aF11644.803327374022
asS'c2eddf15-d5d9-4218-a80f-73fa5e29d9ea'
p10
(lp11
g3
(g4
g5
Ntp12
Rp13
(dp14
g9
L92367147058668586578374462751155861024L
sbaI0
aF80307.08012390569
aF41446.270439928645
aF51.60973400599455
aF41.878601645371674
aF34.547853655330115
aF88.66356689562788
aF73.14322382605758
aF38155.67282559348
asS'104d40b1-bfca-440e-a184-35e548e21935'
p15
(lp16
g3
(g4
g5
Ntp17
Rp18
(dp19
g9
L92367196100901182908207443162650293792L
sbaI0
aF78071.4316351533
aF19934.085608073525
aF25.53313701384436
aF41.878601645371674
aF34.547853655330115
aF88.66356689562788
aF73.14322382605758
aF78070.43186322105
asS'f24dd147-92e7-4e5a-bdc3-792421d81442'
p20
(lp21
g3
(g4
g5
Ntp22
Rp23
(dp24
g9
L92367183582851505658249896867647895072L
sbaI0
aF76409.75312291102
aF10364.870999349034
aF13.564853406444508
aF41.878601645371674
aF34.547853655330115
aF88.66356689562788
aF73.14322382605758
aF27723.09316846922
asS'72cd46c7-5ea7-4dc6-a8a4-0d6d50e0acec'
p25
(lp26
g3
(g4
g5
Ntp27
Rp28
(dp29
g9
L92367177086142179488316664593353717280L
sbaI0
aF74791.47666136164
aF51388.06197379538
aF68.70844682806376
aF41.878601645371674
aF34.547853655330115
aF88.66356689562788
aF73.14322382605758
aF38584.75800291806
as.