(dp0
S'47b23439-8958-4211-9e48-2366e1abcdb9'
p1
(lp2
ccopy_reg
_reconstructor
p3
(cuuid
UUID
p4
c__builtin__
object
p5
Ntp6
Rp7
(dp8
S'int'
p9
L92367202439154184052389032370083903008L
sbaI0
aF12976.259135377812
aF16019.916282706527
aF123.45558234908121
aF43.244547516215846
aF36.318400079589566
aF82.57593119381191
aF69.35037775379534
aF10340.811993244264
asS'c2eddf15-d5d9-4218-a80f-73fa5e29d9ea'
p10
(lp11
g3
(g4
g5
Ntp12
Rp13
(dp14
g9
L92367147058668586578374462751155861024L
sbaI0
aF72430.74151997968
aF41446.270439928645
aF57.22193307726373
aF43.244547516215846
aF36.318400079589566
aF82.57593119381191
aF69.35037775379534
aF34827.00919833562
asS'104d40b1-bfca-440e-a184-35e548e21935'
p15
(lp16
g3
(g4
g5
Ntp17
Rp18
(dp19
g9
L92367196100901182908207443162650293792L
sbaI0
aF70414.36042919016
aF19934.085608073525
aF28.309687805969023
aF43.244547516215846
aF36.318400079589566
aF82.57593119381191
aF69.35037775379534
aF64540.33109421003
asS'f24dd147-92e7-4e5a-bdc3-792421d81442'
p20
(lp21
g3
(g4
g5
Ntp22
Rp23
(dp24
g9
L92367183582851505658249896867647895072L
sbaI0
aF68915.65562478402
aF10364.870999349034
aF15.039936724655542
aF43.244547516215846
aF36.318400079589566
aF82.57593119381191
aF69.35037775379534
aF34369.77466571631
asS'72cd46c7-5ea7-4dc6-a8a4-0d6d50e0acec'
p25
(lp26
g3
(g4
g5
Ntp27
Rp28
(dp29
g9
L92367177086142179488316664593353717280L
sbaI0
aF67456.09609511988
aF51388.06197379538
aF76.18001181291761
aF43.244547516215846
aF36.318400079589566
aF82.57593119381191
aF69.35037775379534
aF45111.0168655538
as.