(dp0
S'104d40b1-bfca-440e-a184-35e548e21935'
p1
(lp2
ccopy_reg
_reconstructor
p3
(cuuid
UUID
p4
c__builtin__
object
p5
Ntp6
Rp7
(dp8
S'int'
p9
L144720900792896493389236587496131442208L
sbaF6280.129832278894
aF38316.746228971046
aF8522.407329680627
aF22.24199121384918
aF68.06515117772724
aF58.20707165741577
aF94.77307123793696
aF81.04680373566997
aF23385.647046316815
asS'3386f43d-35e1-4c0b-8bb5-6aeba3f50db1'
p10
(lp11
g3
(g4
g5
Ntp12
Rp13
(dp14
g9
L144720912756349033045350165164354876960L
sbaI0
aF36464.83464485676
aF4142.163743858582
aF11.359337795441835
aF68.06515117772724
aF58.20707165741577
aF94.77307123793696
aF81.04680373566997
aF2586.447070554098
asS'f24dd147-92e7-4e5a-bdc3-792421d81442'
p15
(lp16
g3
(g4
g5
Ntp17
Rp18
(dp19
g9
L144720850720697784375917839957170501152L
sbaI0
aF37501.20957831414
aF69446.68389607323
aF185.1851838299963
aF68.06515117772724
aF58.20707165741577
aF94.77307123793696
aF81.04680373566997
aF36776.133307751115
asS'47b23439-8958-4211-9e48-2366e1abcdb9'
p20
(lp21
g3
(g4
g5
Ntp22
Rp23
(dp24
g9
L144720819900942566326874906236413457952L
sbaI0
aF7061.173676236672
aF9618.381019164279
aF136.2150466789042
aF68.06515117772724
aF58.20707165741577
aF94.77307123793696
aF81.04680373566997
aF6371.079785972919
asS'ee4a0c0e-57fb-4760-b5ee-7be841a38d6e'
p25
(lp26
g3
(g4
g5
Ntp27
Rp28
(dp29
g9
L144720906259639706872743202086286177824L
sbaI0
aF19216.408371875015
aF14070.687150306534
aF73.2222529726225
aF68.06515117772724
aF58.20707165741577
aF94.77307123793696
aF81.04680373566997
aF12990.214283323416
as.