(dp0
S'c2eddf15-d5d9-4218-a80f-73fa5e29d9ea'
p1
(lp2
ccopy_reg
_reconstructor
p3
(cuuid
UUID
p4
c__builtin__
object
p5
Ntp6
Rp7
(dp8
S'int'
p9
L144720850720697784375917839957170501152L
sbaI0
aF40182.00392639299
aF69446.68389607323
aF172.83031484265558
aF67.95216876473175
aF58.40284780525123
aF96.4594408646641
aF82.90399183142021
aF36996.67562045897
asS'3386f43d-35e1-4c0b-8bb5-6aeba3f50db1'
p10
(lp11
g3
(g4
g5
Ntp12
Rp13
(dp14
g9
L144720912756349033045350165164354876960L
sbaI0
aF37175.38930513176
aF4142.163743858582
aF11.142220219565504
aF67.95216876473175
aF58.40284780525123
aF96.4594408646641
aF82.90399183142021
aF2612.3048715793075
asS'104d40b1-bfca-440e-a184-35e548e21935'
p15
(lp16
g3
(g4
g5
Ntp17
Rp18
(dp19
g9
L144720900792896493389236587496131442208L
sbaF6280.129832278894
aF39063.387283694974
aF8522.407329680627
aF21.816867205568403
aF67.95216876473175
aF58.40284780525123
aF96.4594408646641
aF82.90399183142021
aF25019.495000018705
asS'47b23439-8958-4211-9e48-2366e1abcdb9'
p20
(lp21
g3
(g4
g5
Ntp22
Rp23
(dp24
g9
L144720819900942566326874906236413457952L
sbaI0
aF7198.767879296322
aF9618.381019164279
aF133.6114899165838
aF67.95216876473175
aF58.40284780525123
aF96.4594408646641
aF82.90399183142021
aF6966.86545514269
asS'ee4a0c0e-57fb-4760-b5ee-7be841a38d6e'
p25
(lp26
g3
(g4
g5
Ntp27
Rp28
(dp29
g9
L144720906259639706872743202086286177824L
sbaI0
aF19590.85977568273
aF14070.687150306534
aF71.82271381357064
aF67.95216876473175
aF58.40284780525123
aF96.4594408646641
aF82.90399183142021
aF13625.275723678209
as.