(dp0
S'104d40b1-bfca-440e-a184-35e548e21935'
p1
(lp2
ccopy_reg
_reconstructor
p3
(cuuid
UUID
p4
c__builtin__
object
p5
Ntp6
Rp7
(dp8
S'int'
p9
L144720900792896493389236587496131442208L
sbaF6280.129832278894
aF38184.854103890735
aF8522.407329680627
aF22.318816006193046
aF68.59507946627
aF59.113579959051165
aF95.18217349328685
aF82.02569436833176
aF24719.80402879695
asS'3386f43d-35e1-4c0b-8bb5-6aeba3f50db1'
p10
(lp11
g3
(g4
g5
Ntp12
Rp13
(dp14
g9
L144720912756349033045350165164354876960L
sbaI0
aF36339.317083859496
aF4142.163743858582
aF11.398573435763241
aF68.59507946627
aF59.113579959051165
aF95.18217349328685
aF82.02569436833176
aF3047.6407687931855
asS'f24dd147-92e7-4e5a-bdc3-792421d81442'
p15
(lp16
g3
(g4
g5
Ntp17
Rp18
(dp19
g9
L144720850720697784375917839957170501152L
sbaI0
aF37372.12465563284
aF69446.68389607323
aF185.8248214036341
aF68.59507946627
aF59.113579959051165
aF95.18217349328685
aF82.02569436833176
aF36897.79923786065
asS'47b23439-8958-4211-9e48-2366e1abcdb9'
p20
(lp21
g3
(g4
g5
Ntp22
Rp23
(dp24
g9
L144720819900942566326874906236413457952L
sbaI0
aF7036.868032011174
aF9618.381019164279
aF136.68553929688082
aF68.59507946627
aF59.113579959051165
aF95.18217349328685
aF82.02569436833176
aF6671.321166160741
asS'ee4a0c0e-57fb-4760-b5ee-7be841a38d6e'
p25
(lp26
g3
(g4
g5
Ntp27
Rp28
(dp29
g9
L144720906259639706872743202086286177824L
sbaI0
aF19150.262543066074
aF14070.687150306534
aF73.47516577730286
aF68.59507946627
aF59.113579959051165
aF95.18217349328685
aF82.02569436833176
aF14070.687150306532
as.