(dp0
S'c2eddf15-d5d9-4218-a80f-73fa5e29d9ea'
p1
(lp2
ccopy_reg
_reconstructor
p3
(cuuid
UUID
p4
c__builtin__
object
p5
Ntp6
Rp7
(dp8
S'int'
p9
L7918664050964034871881128589654668832L
sbaF3382.994419417657
aF62819.43407801057
aF54478.57134721279
aF86.72248030690643
aF54.5364042903944
aF51.34224114298503
aF97.67756172257415
aF91.9566479211851
aF53743.15116025161
asS'f24dd147-92e7-4e5a-bdc3-792421d81442'
p10
(lp11
g3
(g4
g5
Ntp12
Rp13
(dp14
g9
L7918654702040858193084524312805422624L
sbaI0
aF59770.78785352213
aF49878.387404503344
aF83.44943942639388
aF54.5364042903944
aF51.34224114298503
aF97.67756172257415
aF91.9566479211851
aF59006.997703373476
as.