(dp0
S'c2eddf15-d5d9-4218-a80f-73fa5e29d9ea'
p1
(lp2
ccopy_reg
_reconstructor
p3
(cuuid
UUID
p4
c__builtin__
object
p5
Ntp6
Rp7
(dp8
S'int'
p9
L7918664050964034871881128589654668832L
sbaF3382.994419417657
aF63182.96623072496
aF54478.57134721279
aF86.22351022310923
aF54.56686619651724
aF51.66367875611569
aF98.29769029012
aF93.06783855476468
aF54741.73672515053
asS'f24dd147-92e7-4e5a-bdc3-792421d81442'
p10
(lp11
g3
(g4
g5
Ntp12
Rp13
(dp14
g9
L7918654702040858193084524312805422624L
sbaI0
aF60116.677680400244
aF49878.387404503344
aF82.9693012472729
aF54.56686619651724
aF51.66367875611569
aF98.29769029012
aF93.06783855476468
aF59618.62880619436
as.