(dp0
S'c2eddf15-d5d9-4218-a80f-73fa5e29d9ea'
p1
(lp2
ccopy_reg
_reconstructor
p3
(cuuid
UUID
p4
c__builtin__
object
p5
Ntp6
Rp7
(dp8
S'int'
p9
L7918664050964034871881128589654668832L
sbaF3382.994419417657
aF62712.648008358265
aF54478.57134721279
aF86.87014992566085
aF53.44957521702924
aF50.73766113019011
aF95.56826175350926
aF90.71933799215638
aF54568.97982448999
asS'f24dd147-92e7-4e5a-bdc3-792421d81442'
p10
(lp11
g3
(g4
g5
Ntp12
Rp13
(dp14
g9
L7918654702040858193084524312805422624L
sbaI0
aF59669.18414427865
aF49878.387404503344
aF83.5915357647569
aF53.44957521702924
aF50.73766113019011
aF95.56826175350926
aF90.71933799215638
aF57911.52530262907
as.