(dp0
S'590f12d9-048b-4408-9515-9e0daa4f249b'
p1
(lp2
ccopy_reg
_reconstructor
p3
(cuuid
UUID
p4
c__builtin__
object
p5
Ntp6
Rp7
(dp8
S'int'
p9
L47630196661032540027370919938077931040L
sbaI0
aF211344.9297118011
aF83737.6503609176
aF39.62131974261498
aF23.00092639972716
aF21.755900017637902
aF61.87384131966754
aF58.52464731480762
aF88354.42955578899
as.