(dp0
S'a7b82e09-29d1-49c1-8aa0-1647c741baf2'
p1
(lp2
ccopy_reg
_reconstructor
p3
(cuuid
UUID
p4
c__builtin__
object
p5
Ntp6
Rp7
(dp8
S'int'
p9
L47630160929131246092956707748875777568L
sbaI0
aF103990.70093601651
aF169739.7990137592
aF163.22593990225803
aF17.038430451661462
aF12.05837293460327
aF96.19659836816238
aF68.07988925120964
aF82699.20763063572
asS'37e3c252-8fd6-4717-8058-2072d6138c3f'
p10
(lp11
g3
(g4
g5
Ntp12
Rp13
(dp14
g9
L47630196661032540027370919938077931040L
sbaI0
aF99854.70714878858
aF83737.6503609176
aF83.85949220815824
aF17.038430451661462
aF12.05837293460327
aF96.19659836816238
aF68.07988925120964
aF81417.97984057872
as.