(dp0
S'590f12d9-048b-4408-9515-9e0daa4f249b'
p1
(lp2
ccopy_reg
_reconstructor
p3
(cuuid
UUID
p4
c__builtin__
object
p5
Ntp6
Rp7
(dp8
S'int'
p9
L47630196661032540027370919938077931040L
sbaI0
aF212532.26077759766
aF83737.6503609176
aF39.39997158762832
aF25.157506173331694
aF20.92071550734299
aF68.05536499198968
aF56.59412025724057
aF11176.005652000349
as.