(dp0
S'9624ce3b-a91c-4fc2-bca0-defc7f924875'
p1
(lp2
ccopy_reg
_reconstructor
p3
(cuuid
UUID
p4
c__builtin__
object
p5
Ntp6
Rp7
(dp8
S'int'
p9
L195663436791979324603742638005193192992L
sbaF649.6810495381072
aF28388.615680492527
aF21951.61830175952
aF77.32542702617148
aF61.15152354533826
aF56.02398252055205
aF95.70513406380101
aF87.68028083457655
aF22571.494473127103
asS'480c3c42-0e7e-483e-bd06-d5391c075842'
p10
(lp11
g3
(g4
g5
Ntp12
Rp13
(dp14
g9
L195663477990623832023853903053312407072L
sbaI0
aF41831.71895716818
aF47795.325409039564
aF114.25618310827141
aF61.15152354533826
aF56.02398252055205
aF95.70513406380101
aF87.68028083457655
aF31027.032619693062
as.