(dp0
S'9624ce3b-a91c-4fc2-bca0-defc7f924875'
p1
(lp2
ccopy_reg
_reconstructor
p3
(cuuid
UUID
p4
c__builtin__
object
p5
Ntp6
Rp7
(dp8
S'int'
p9
L195663436791979324603742638005193192992L
sbaF649.6810495381072
aF27039.87676813739
aF21951.61830175952
aF81.18239032666875
aF62.42701993110812
aF57.393389765617705
aF93.0595719281049
aF85.555970619539
aF22262.34810896105
asS'480c3c42-0e7e-483e-bd06-d5391c075842'
p10
(lp11
g3
(g4
g5
Ntp12
Rp13
(dp14
g9
L195663477990623832023853903053312407072L
sbaI0
aF39844.300205819665
aF47795.325409039564
aF119.95523867190062
aF62.42701993110812
aF57.393389765617705
aF93.0595719281049
aF85.555970619539
aF31057.95037783627
as.