(dp0
S'9624ce3b-a91c-4fc2-bca0-defc7f924875'
p1
(lp2
ccopy_reg
_reconstructor
p3
(cuuid
UUID
p4
c__builtin__
object
p5
Ntp6
Rp7
(dp8
S'int'
p9
L195663436791979324603742638005193192992L
sbaF649.6810495381072
aF27691.343458569954
aF21951.61830175952
aF79.27249298901712
aF61.9156619687605
aF56.71785311250803
aF94.52099520659733
aF86.58597439983386
aF22589.0091273546
asS'480c3c42-0e7e-483e-bd06-d5391c075842'
p10
(lp11
g3
(g4
g5
Ntp12
Rp13
(dp14
g9
L195663477990623832023853903053312407072L
sbaI0
aF40804.26147377457
aF47795.325409039564
aF117.13317110213659
aF61.9156619687605
aF56.71785311250803
aF94.52099520659733
aF86.58597439983386
aF29920.206540120173
as.