(dp0
S'480c3c42-0e7e-483e-bd06-d5391c075842'
p1
(lp2
ccopy_reg
_reconstructor
p3
(cuuid
UUID
p4
c__builtin__
object
p5
Ntp6
Rp7
(dp8
S'int'
p9
L132608872313892789354914522391674271264L
sbaI0
aF42762.42436128145
aF65160.58778909854
aF152.37814217123093
aF60.353076215141435
aF52.84455351827951
aF95.5080998948925
aF83.62594274951995
aF31702.07561516563
asS'9624ce3b-a91c-4fc2-bca0-defc7f924875'
p10
(lp11
g3
(g4
g5
Ntp12
Rp13
(dp14
g9
L132608901707541082149821600311676679712L
sbaF240.3562503417062
aF29020.228214899307
aF22298.158515328076
aF76.83660634991132
aF60.353076215141435
aF52.84455351827951
aF95.5080998948925
aF83.62594274951995
aF23679.342780195162
asS'ce24ba10-a7c7-4d37-bd7a-7013f8cbc96a'
p15
(lp16
g3
(g4
g5
Ntp17
Rp18
(dp19
g9
L132608893863952993236962564857884489248L
sbaI0
aF84658.56607434328
aF74300.74380170676
aF87.76518106444095
aF60.353076215141435
aF52.84455351827951
aF95.5080998948925
aF83.62594274951995
aF80410.88227628992
as.