(dp0
S'480c3c42-0e7e-483e-bd06-d5391c075842'
p1
(lp2
ccopy_reg
_reconstructor
p3
(cuuid
UUID
p4
c__builtin__
object
p5
Ntp6
Rp7
(dp8
S'int'
p9
L132608872313892789354914522391674271264L
sbaI0
aF41412.761914737894
aF65160.58778909854
aF157.3442213857978
aF62.00793273393204
aF54.186002859856394
aF95.0298236239215
aF83.04237970248704
aF31734.867712624844
asS'9624ce3b-a91c-4fc2-bca0-defc7f924875'
p10
(lp11
g3
(g4
g5
Ntp12
Rp13
(dp14
g9
L132608901707541082149821600311676679712L
sbaF240.3562503417062
aF28104.295294893112
aF22298.158515328076
aF79.34074945255759
aF62.00793273393204
aF54.186002859856394
aF95.0298236239215
aF83.04237970248704
aF24215.23481149384
asS'ce24ba10-a7c7-4d37-bd7a-7013f8cbc96a'
p15
(lp16
g3
(g4
g5
Ntp17
Rp18
(dp19
g9
L132608893863952993236962564857884489248L
sbaI0
aF81986.58268903688
aF74300.74380170676
aF90.6254918362906
aF62.00793273393204
aF54.186002859856394
aF95.0298236239215
aF83.04237970248704
aF77938.69618631237
as.