(dp0
S'8b445b57-9fb4-4937-9d74-3eb02337b1a4'
p1
(lp2
ccopy_reg
_reconstructor
p3
(cuuid
UUID
p4
c__builtin__
object
p5
Ntp6
Rp7
(dp8
S'int'
p9
L247849890674456742670732880123544647200L
sbaI0
aF20061.192804690516
aF53957.75320156927
aF268.9658273408019
aF80.98185073812843
aF37.45427425930527
aF31.714757112976816
aF14.668141072965291
aF16491.447731576452
asS'2a0cfb21-2c7b-45a4-b8ce-0959b8ba7af2'
p10
(lp11
g3
(g4
g5
Ntp12
Rp13
(dp14
g9
L247849859696245199593215314411228149280L
sbaI0
aF12287.507189822934
aF155436.14046585152
aF1264.9932819131184
aF80.98185073812843
aF37.45427425930527
aF31.714757112976816
aF14.668141072965291
aF12148.076792708744
asS'ff31c900-97ca-4587-8769-eee9991357d7'
p15
(lp16
g3
(g4
g5
Ntp17
Rp18
(dp19
g9
L247849897012709743809199119928868386336L
sbaF37882.973921429046
aF11797.69775899672
aF6781.367918537684
aF57.480434378532294
aF80.98185073812843
aF37.45427425930527
aF31.714757112976816
aF14.668141072965291
aF8835.608840108061
as.