(dp0
S'8b445b57-9fb4-4937-9d74-3eb02337b1a4'
p1
(lp2
ccopy_reg
_reconstructor
p3
(cuuid
UUID
p4
c__builtin__
object
p5
Ntp6
Rp7
(dp8
S'int'
p9
L247849890674456742670732880123544647200L
sbaI0
aF144584.7306691188
aF53957.75320156927
aF37.319122809068425
aF31.646908893605474
aF18.552164861051534
aF89.32451506912952
aF52.36413879368852
aF37210.15047915319
asS'e5ef913c-e322-4e37-89e9-7e809abff2e7'
p10
(lp11
g3
(g4
g5
Ntp12
Rp13
(dp14
g9
L247849903509419069979016384512757773856L
sbaI0
aF71768.41501129317
aF10693.504091341832
aF14.900014288540648
aF31.646908893605474
aF18.552164861051534
aF89.32451506912952
aF52.36413879368852
aF9965.98930946907
asS'd3c47541-2039-49d0-8472-4c0c55b619b5'
p15
(lp16
g3
(g4
g5
Ntp17
Rp18
(dp19
g9
L247849859696245199593215314411228149280L
sbaI0
aF66290.70607068765
aF155436.14046585152
aF234.476519680007
aF31.646908893605474
aF18.552164861051534
aF89.32451506912952
aF52.36413879368852
aF50952.24320944466
asS'ff31c900-97ca-4587-8769-eee9991357d7'
p20
(lp21
g3
(g4
g5
Ntp22
Rp23
(dp24
g9
L247849897012709743809199119928868386336L
sbaF37882.973921429046
aF85028.1919727814
aF6781.367918537684
aF7.975434689600934
aF31.646908893605474
aF18.552164861051534
aF89.32451506912952
aF52.36413879368852
aF61174.38226509352
as.