(dp0
S'2a0cfb21-2c7b-45a4-b8ce-0959b8ba7af2'
p1
(lp2
ccopy_reg
_reconstructor
p3
(cuuid
UUID
p4
c__builtin__
object
p5
Ntp6
Rp7
(dp8
S'int'
p9
L247849897012709743809199119928868386336L
sbaF37882.973921429046
aF88703.1903206436
aF6781.367918537684
aF7.64501016708018
aF34.718272446001755
aF25.548722530195313
aF98.153830743366
aF72.23012005676009
aF84402.02493490504
asS'bc63d18c-7a19-498a-927e-c4805b875e96'
p10
(lp11
g3
(g4
g5
Ntp12
Rp13
(dp14
g9
L247849859696245199593215314411228149280L
sbaI0
aF85722.28470639113
aF155436.14046585152
aF181.32524231970544
aF34.718272446001755
aF25.548722530195313
aF98.153830743366
aF72.23012005676009
aF79359.12306157604
asS'e6c80f54-a553-4a09-a2a2-be3089d67f81'
p15
(lp16
g3
(g4
g5
Ntp17
Rp18
(dp19
g9
L247849890674456742670732880123544647200L
sbaI0
aF72484.85190823177
aF53957.75320156927
aF74.4400406168748
aF34.718272446001755
aF25.548722530195313
aF98.153830743366
aF72.23012005676009
aF53096.99387016178
asS'fd01a700-6fa5-443a-9048-08d9f1af4c74'
p20
(lp21
g3
(g4
g5
Ntp22
Rp23
(dp24
g9
L247849903509419069979016384512757773856L
sbaI0
aF7692.395387930157
aF10693.504091341832
aF139.01396836830045
aF34.718272446001755
aF25.548722530195313
aF98.153830743366
aF72.23012005676009
aF6731.316457762638
as.