(dp0
S'39b7861e-1601-4895-a2bc-44b4cd8d571d'
p1
(lp2
ccopy_reg
_reconstructor
p3
(cuuid
UUID
p4
c__builtin__
object
p5
Ntp6
Rp7
(dp8
S'int'
p9
L258497596127854777839481414263604164128L
sbaI0
aF19298.37318884741
aF4139.697488324287
aF21.45101790609289
aF71.26821552671757
aF64.97324358026742
aF92.88901588651456
aF84.68432400785005
aF3249.18805969652
asS'9624ce3b-a91c-4fc2-bca0-defc7f924875'
p10
(lp11
g3
(g4
g5
Ntp12
Rp13
(dp14
g9
L258497513809793925517535084603966666272L
sbaI0
aF19593.247784648385
aF15951.373190622226
aF81.4126038007868
aF71.26821552671757
aF64.97324358026742
aF92.88901588651456
aF84.68432400785005
aF16115.34535421303
asS'185cb871-2be1-47fe-b987-97f9cd81f76c'
p15
(lp16
g3
(g4
g5
Ntp17
Rp18
(dp19
g9
L258497584164402238182869907361579578912L
sbaI0
aF5022.935433098905
aF12002.015164908891
aF238.94424534747074
aF71.26821552671757
aF64.97324358026742
aF92.88901588651456
aF84.68432400785005
aF5022.516874460662
as.