(dp0
S'5120100e-a0b9-4ed6-8222-b400ebe3c529'
p1
(lp2
ccopy_reg
_reconstructor
p3
(cuuid
UUID
p4
c__builtin__
object
p5
Ntp6
Rp7
(dp8
S'int'
p9
L258497584164402238182869907361579578912L
sbaI0
aF5196.6717599128215
aF12002.015164908891
aF230.95580631997112
aF73.32812884692832
aF66.39383966851327
aF92.34774583073118
aF83.61486276614598
aF5196.6717599128215
asS'9624ce3b-a91c-4fc2-bca0-defc7f924875'
p10
(lp11
g3
(g4
g5
Ntp12
Rp13
(dp14
g9
L258497513809793925517535084603966666272L
sbaI0
aF18931.87593085079
aF15951.373190622226
aF84.25669621375644
aF73.32812884692832
aF66.39383966851327
aF92.34774583073118
aF83.61486276614598
aF16328.009041515868
asS'39b7861e-1601-4895-a2bc-44b4cd8d571d'
p15
(lp16
g3
(g4
g5
Ntp17
Rp18
(dp19
g9
L258497596127854777839481414263604164128L
sbaI0
aF18646.954853741878
aF4139.697488324287
aF22.200394224119528
aF73.32812884692832
aF66.39383966851327
aF92.34774583073118
aF83.61486276614598
aF3756.857472527876
as.