(dp0
S'5120100e-a0b9-4ed6-8222-b400ebe3c529'
p1
(lp2
ccopy_reg
_reconstructor
p3
(cuuid
UUID
p4
c__builtin__
object
p5
Ntp6
Rp7
(dp8
S'int'
p9
L258497584164402238182869907361579578912L
sbaI0
aF5659.586696682903
aF12002.015164908891
aF212.0652232775814
aF69.16650349573293
aF62.683609468945164
aF94.86607855654758
aF85.9743939558223
aF5659.586696682903
asS'9624ce3b-a91c-4fc2-bca0-defc7f924875'
p10
(lp11
g3
(g4
g5
Ntp12
Rp13
(dp14
g9
L258497513809793925517535084603966666272L
sbaI0
aF20618.310740352004
aF15951.373190622226
aF77.36508286978071
aF69.16650349573293
aF62.683609468945164
aF94.86607855654758
aF85.9743939558223
aF16495.708732095445
asS'39b7861e-1601-4895-a2bc-44b4cd8d571d'
p15
(lp16
g3
(g4
g5
Ntp17
Rp18
(dp19
g9
L258497596127854777839481414263604164128L
sbaI0
aF20308.00914500222
aF4139.697488324287
aF20.384555959012175
aF69.16650349573293
aF62.683609468945164
aF94.86607855654758
aF85.9743939558223
aF4032.825225562128
as.