(dp0
S'3a8b6a6e-2f85-4261-bcd8-a1dbfaffa0c0'
p1
(lp2
ccopy_reg
_reconstructor
p3
(cuuid
UUID
p4
c__builtin__
object
p5
Ntp6
Rp7
(dp8
S'int'
p9
L229224005755760932895249151234054731296L
sbaF233.03022458039857
aF7473.180802475172
aF5803.832067533483
aF77.66213906682428
aF81.48753229273044
aF74.00174819558184
aF85.67849718864879
aF77.80771360155525
aF5194.24835078319
asS'a7b82e09-29d1-49c1-8aa0-1647c741baf2'
p10
(lp11
g3
(g4
g5
Ntp12
Rp13
(dp14
g9
L229223969231578013818164822986625562144L
sbaI0
aF12257.137026300392
aF12843.519198694607
aF104.78400601328029
aF81.48753229273044
aF74.00174819558184
aF85.67849718864879
aF77.80771360155525
aF10807.58780432575
asS'f147fab8-e0dc-4260-b614-3f7a7334e88c'
p15
(lp16
g3
(g4
g5
Ntp17
Rp18
(dp19
g9
L229223987454055392098962469501734139424L
sbaI0
aF12396.422674326526
aF12690.133952274
aF102.36932287373325
aF81.48753229273044
aF74.00174819558184
aF85.67849718864879
aF77.80771360155525
aF9802.510565525126
asS'37e3c252-8fd6-4717-8058-2072d6138c3f'
p20
(lp21
g3
(g4
g5
Ntp22
Rp23
(dp24
g9
L229223962972553175190659248973192803872L
sbaI0
aF11769.637258208902
aF10728.634235665586
aF91.15518176384532
aF81.48753229273044
aF74.00174819558184
aF85.67849718864879
aF77.80771360155525
aF9172.209337599714
as.