(dp0
S'3a8b6a6e-2f85-4261-bcd8-a1dbfaffa0c0'
p1
(lp2
ccopy_reg
_reconstructor
p3
(cuuid
UUID
p4
c__builtin__
object
p5
Ntp6
Rp7
(dp8
S'int'
p9
L229224005755760932895249151234054731296L
sbaF233.03022458039857
aF7660.142891937872
aF5803.832067533483
aF75.76662928366369
aF79.11143194738501
aF72.8683043266083
aF85.26117258903186
aF78.53273437893331
aF4966.879755993545
asS'a7b82e09-29d1-49c1-8aa0-1647c741baf2'
p10
(lp11
g3
(g4
g5
Ntp12
Rp13
(dp14
g9
L229223969231578013818164822986625562144L
sbaI0
aF12563.782885652374
aF12843.519198694607
aF102.22652934699856
aF79.11143194738501
aF72.8683043266083
aF85.26117258903186
aF78.53273437893331
aF12011.293622879492
asS'f147fab8-e0dc-4260-b614-3f7a7334e88c'
p15
(lp16
g3
(g4
g5
Ntp17
Rp18
(dp19
g9
L229223987454055392098962469501734139424L
sbaI0
aF12706.553145716607
aF12690.133952274
aF99.87078168835943
aF79.11143194738501
aF72.8683043266083
aF85.26117258903186
aF78.53273437893331
aF10282.970917142915
asS'37e3c252-8fd6-4717-8058-2072d6138c3f'
p20
(lp21
g3
(g4
g5
Ntp22
Rp23
(dp24
g9
L229223962972553175190659248973192803872L
sbaI0
aF12064.086975427572
aF10728.634235665586
aF88.93034555800145
aF79.11143194738501
aF72.8683043266083
aF85.26117258903186
aF78.53273437893331
aF9983.847000248206
as.