(dp0
S'a7b82e09-29d1-49c1-8aa0-1647c741baf2'
p1
(lp2
ccopy_reg
_reconstructor
p3
(cuuid
UUID
p4
c__builtin__
object
p5
Ntp6
Rp7
(dp8
S'int'
p9
L148560594178567316261513623862371857952L
sbaI0
aF12174.006777928902
aF13408.962147892405
aF110.14419814684547
aF70.90417039822044
aF67.71323031846043
aF67.9104521333746
aF64.85424003287385
aF10981.689779902415
asS'f147fab8-e0dc-4260-b614-3f7a7334e88c'
p10
(lp11
g3
(g4
g5
Ntp12
Rp13
(dp14
g9
L148560636169493448823784409360964957728L
sbaI0
aF12312.34776404172
aF14971.650502594475
aF121.598664929846
aF70.90417039822044
aF67.71323031846043
aF67.9104521333746
aF64.85424003287385
aF12312.34776404172
asS'37e3c252-8fd6-4717-8058-2072d6138c3f'
p15
(lp16
g3
(g4
g5
Ntp17
Rp18
(dp19
g9
L148560642507746449962961092007506392608L
sbaI0
aF11689.813326533998
aF12538.102986656548
aF107.25665702631085
aF70.90417039822044
aF67.71323031846043
aF67.9104521333746
aF64.85424003287385
aF10822.960441602696
asS'170c07e8-654b-4bcd-ac4a-fd5fc736961b'
p20
(lp21
g3
(g4
g5
Ntp22
Rp23
(dp24
g9
L148560618739297695682697169523970848288L
sbaI0
aF10810.691138247177
aF4706.774470523427
aF43.53814580708273
aF70.90417039822044
aF67.71323031846043
aF67.9104521333746
aF64.85424003287385
aF1809.067841167162
asS'9a2e9e79-6c3d-48ae-b661-3729ce6ef326'
p25
(lp26
g3
(g4
g5
Ntp27
Rp28
(dp29
g9
L148560606775845156032278675059534116384L
sbaI0
aF11968.427435437205
aF12601.053650197176
aF105.28579229119805
aF70.90417039822044
aF67.71323031846043
aF67.9104521333746
aF64.85424003287385
aF4801.249028785466
as.