(dp0
S'f147fab8-e0dc-4260-b614-3f7a7334e88c'
p1
(lp2
ccopy_reg
_reconstructor
p3
(cuuid
UUID
p4
c__builtin__
object
p5
Ntp6
Rp7
(dp8
S'int'
p9
L148560636169493448823784409360964957728L
sbaI0
aF16869.77419774305
aF14971.650502594475
aF88.748375212974
aF60.58340626906804
aF56.468297646039844
aF79.50362399482097
aF74.10336559386475
aF10958.90133151305
asS'590f12d9-048b-4408-9515-9e0daa4f249b'
p10
(lp11
g3
(g4
g5
Ntp12
Rp13
(dp14
g9
L148560568667098986669543929271315772960L
sbaI0
aF71148.81008469377
aF3762.8207734498606
aF5.288662971272032
aF60.58340626906804
aF56.468297646039844
aF79.50362399482097
aF74.10336559386475
aF3032.381712062556
asS'a7b82e09-29d1-49c1-8aa0-1647c741baf2'
p15
(lp16
g3
(g4
g5
Ntp17
Rp18
(dp19
g9
L148560594178567316261513623862371857952L
sbaI0
aF16680.226173049312
aF13408.962147892405
aF80.38837128933913
aF60.58340626906804
aF56.468297646039844
aF79.50362399482097
aF74.10336559386475
aF13358.214394562834
asS'37e3c252-8fd6-4717-8058-2072d6138c3f'
p20
(lp21
g3
(g4
g5
Ntp22
Rp23
(dp24
g9
L148560642507746449962961092007506392608L
sbaI0
aF16016.808086621228
aF12538.102986656548
aF78.28090914774444
aF60.58340626906804
aF56.468297646039844
aF79.50362399482097
aF74.10336559386475
aF11836.6407777577
asS'9a2e9e79-6c3d-48ae-b661-3729ce6ef326'
p25
(lp26
g3
(g4
g5
Ntp27
Rp28
(dp29
g9
L148560618739297695682697169523970848288L
sbaI0
aF16398.551454789333
aF4706.774470523427
aF28.702379496749845
aF60.58340626906804
aF56.468297646039844
aF79.50362399482097
aF74.10336559386475
aF4624.851699268828
as.