(dp0
S'a7b82e09-29d1-49c1-8aa0-1647c741baf2'
p1
(lp2
ccopy_reg
_reconstructor
p3
(cuuid
UUID
p4
c__builtin__
object
p5
Ntp6
Rp7
(dp8
S'int'
p9
L148560594178567316261513623862371857952L
sbaI0
aF12953.633308180875
aF13408.962147892405
aF103.51506661396665
aF69.79621281525216
aF64.87556142569456
aF71.13031955044679
aF66.11561328462061
aF8980.735784540082
asS'f147fab8-e0dc-4260-b614-3f7a7334e88c'
p10
(lp11
g3
(g4
g5
Ntp12
Rp13
(dp14
g9
L148560636169493448823784409360964957728L
sbaI0
aF13100.833686682934
aF14971.650502594475
aF114.28013560551673
aF69.79621281525216
aF64.87556142569456
aF71.13031955044679
aF66.11561328462061
aF10875.167368575085
asS'170c07e8-654b-4bcd-ac4a-fd5fc736961b'
p15
(lp16
g3
(g4
g5
Ntp17
Rp18
(dp19
g9
L148560618739297695682697169523970848288L
sbaI0
aF11503.010583724885
aF4706.774470523427
aF40.91776180040067
aF69.79621281525216
aF64.87556142569456
aF71.13031955044679
aF66.11561328462061
aF2988.276433264936
asS'3a8b6a6e-2f85-4261-bcd8-a1dbfaffa0c0'
p20
(lp21
g3
(g4
g5
Ntp22
Rp23
(dp24
g9
L148560568667098986669543929271315772960L
sbaI0
aF7897.834833149391
aF3762.8207734498606
aF47.6437004944224
aF69.79621281525216
aF64.87556142569456
aF71.13031955044679
aF66.11561328462061
aF3678.623386250493
asS'9a2e9e79-6c3d-48ae-b661-3729ce6ef326'
p25
(lp26
g3
(g4
g5
Ntp27
Rp28
(dp29
g9
L148560606775845156032278675059534116384L
sbaI0
aF12734.888611635915
aF12601.053650197176
aF98.9490684565827
aF69.79621281525216
aF64.87556142569456
aF71.13031955044679
aF66.11561328462061
aF8605.743050561161
asS'37e3c252-8fd6-4717-8058-2072d6138c3f'
p30
(lp31
g3
(g4
g5
Ntp32
Rp33
(dp34
g9
L148560642507746449962961092007506392608L
sbaI0
aF12438.43198342369
aF12538.102986656548
aF100.80131485516573
aF69.79621281525216
aF64.87556142569456
aF71.13031955044679
aF66.11561328462061
aF9323.019586754508
as.