(dp0
S'e6c80f54-a553-4a09-a2a2-be3089d67f81'
p1
(lp2
ccopy_reg
_reconstructor
p3
(cuuid
UUID
p4
c__builtin__
object
p5
Ntp6
Rp7
(dp8
S'int'
p9
L65447799985619857920439544409618036256L
sbaI0
aF19647.195383406244
aF20664.8898086205
aF105.17984580167501
aF74.29939099908789
aF64.22580030700338
aF91.17851235326913
aF78.81643238182924
aF18277.60008476489
asS'd3c47541-2039-49d0-8472-4c0c55b619b5'
p10
(lp11
g3
(g4
g5
Ntp12
Rp13
(dp14
g9
L65447892682569999607992746423500846624L
sbaF494.47187501120993
aF17997.647002201404
aF2775.131642271917
aF15.419413670756368
aF74.29939099908789
aF64.22580030700338
aF91.17851235326913
aF78.81643238182924
aF2098.2293330725456
asS'ff31c900-97ca-4587-8769-eee9991357d7'
p15
(lp16
g3
(g4
g5
Ntp17
Rp18
(dp19
g9
L65447829379268150713205160706805773856L
sbaI0
aF23084.795366785278
aF11568.962643699257
aF50.1150755719708
aF74.29939099908789
aF64.22580030700338
aF91.17851235326913
aF78.81643238182924
aF22560.607486222998
as.