(dp0
S'e6c80f54-a553-4a09-a2a2-be3089d67f81'
p1
(lp2
ccopy_reg
_reconstructor
p3
(cuuid
UUID
p4
c__builtin__
object
p5
Ntp6
Rp7
(dp8
S'int'
p9
L65447799985619857920439544409618036256L
sbaI0
aF18536.1353379373
aF20664.8898086205
aF111.48434898576916
aF76.62689103016326
aF65.23347264588223
aF88.71704769816063
aF75.52598084611421
aF17539.931554505314
asS'd3c47541-2039-49d0-8472-4c0c55b619b5'
p10
(lp11
g3
(g4
g5
Ntp12
Rp13
(dp14
g9
L65447892682569999607992746423500846624L
sbaF494.47187501120993
aF16979.869853535776
aF2775.131642271917
aF16.343656731232496
aF76.62689103016326
aF65.23347264588223
aF88.71704769816063
aF75.52598084611421
aF1519.1780361520644
asS'ff31c900-97ca-4587-8769-eee9991357d7'
p15
(lp16
g3
(g4
g5
Ntp17
Rp18
(dp19
g9
L65447829379268150713205160706805773856L
sbaI0
aF21779.337091986235
aF11568.962643699257
aF53.11898426860792
aF76.62689103016326
aF65.23347264588223
aF88.71704769816063
aF75.52598084611421
aF21422.849573075247
as.