(dp0
S'e6c80f54-a553-4a09-a2a2-be3089d67f81'
p1
(lp2
ccopy_reg
_reconstructor
p3
(cuuid
UUID
p4
c__builtin__
object
p5
Ntp6
Rp7
(dp8
S'int'
p9
L65447799985619857920439544409618036256L
sbaI0
aF19739.938522754055
aF20664.8898086205
aF104.68568473402418
aF75.83185722372058
aF65.22409883890296
aF93.49839855891359
aF80.4193516043562
aF19050.78725155796
asS'd3c47541-2039-49d0-8472-4c0c55b619b5'
p10
(lp11
g3
(g4
g5
Ntp12
Rp13
(dp14
g9
L65447892682569999607992746423500846624L
sbaF494.47187501120993
aF18082.603569858267
aF2775.131642271917
aF15.346969431425014
aF75.83185722372058
aF65.22409883890296
aF93.49839855891359
aF80.4193516043562
aF1937.631794881054
asS'ff31c900-97ca-4587-8769-eee9991357d7'
p15
(lp16
g3
(g4
g5
Ntp17
Rp18
(dp19
g9
L65447829379268150713205160706805773856L
sbaI0
aF23193.765443772747
aF11568.962643699257
aF49.879622486246134
aF75.83185722372058
aF65.22409883890296
aF93.49839855891359
aF80.4193516043562
aF22547.547136165
as.