(dp0
S'f147fab8-e0dc-4260-b614-3f7a7334e88c'
p1
(lp2
ccopy_reg
_reconstructor
p3
(cuuid
UUID
p4
c__builtin__
object
p5
Ntp6
Rp7
(dp8
S'int'
p9
L128051763955239923640411224094745998880L
sbaI0
aF31590.539957060955
aF36611.92930010892
aF115.89523113524878
aF41.182523589384786
aF41.53462096352619
aF78.36207004624424
aF79.03204062334308
aF28262.49128668127
asS'a7b82e09-29d1-49c1-8aa0-1647c741baf2'
p10
(lp11
g3
(g4
g5
Ntp12
Rp13
(dp14
g9
L128051719508240753134405742123729729056L
sbaI0
aF31235.590069902977
aF34255.70327226322
aF109.66882071253161
aF41.182523589384786
aF41.53462096352619
aF78.36207004624424
aF79.03204062334308
aF29792.502453513276
asS'590f12d9-048b-4408-9515-9e0daa4f249b'
p15
(lp16
g3
(g4
g5
Ntp17
Rp18
(dp19
g9
L128051728857163929819413373236676310560L
sbaI0
aF133234.1086212383
aF55188.949423054975
aF41.42253811292999
aF41.182523589384786
aF41.53462096352619
aF78.36207004624424
aF79.03204062334308
aF48178.67501350199
asS'37e3c252-8fd6-4717-8058-2072d6138c3f'
p20
(lp21
g3
(g4
g5
Ntp22
Rp23
(dp24
g9
L128051708337069838623483733355107366432L
sbaI0
aF29993.265464849996
aF34646.06316677249
aF115.51280805811305
aF41.182523589384786
aF41.53462096352619
aF78.36207004624424
aF79.03204062334308
aF29116.438853564803
as.