(dp0
S'f147fab8-e0dc-4260-b614-3f7a7334e88c'
p1
(lp2
ccopy_reg
_reconstructor
p3
(cuuid
UUID
p4
c__builtin__
object
p5
Ntp6
Rp7
(dp8
S'int'
p9
L128051763955239923640411224094745998880L
sbaI0
aF33586.56020010158
aF36611.92930010892
aF109.00767771984636
aF44.68624582491927
aF44.96655440773235
aF90.40142842189792
aF90.96849991822599
aF33578.594899970136
asS'a7b82e09-29d1-49c1-8aa0-1647c741baf2'
p10
(lp11
g3
(g4
g5
Ntp12
Rp13
(dp14
g9
L128051719508240753134405742123729729056L
sbaI0
aF33209.18311920156
aF34255.70327226322
aF103.1512974869188
aF44.68624582491927
aF44.96655440773235
aF90.40142842189792
aF90.96849991822599
aF32290.148004925948
asS'590f12d9-048b-4408-9515-9e0daa4f249b'
p15
(lp16
g3
(g4
g5
Ntp17
Rp18
(dp19
g9
L128051728857163929819413373236676310560L
sbaI0
aF141652.38758174158
aF55188.949423054975
aF38.9608324753494
aF44.68624582491927
aF44.96655440773235
aF90.40142842189792
aF90.96849991822599
aF54954.871908168934
asS'37e3c252-8fd6-4717-8058-2072d6138c3f'
p20
(lp21
g3
(g4
g5
Ntp22
Rp23
(dp24
g9
L128051708337069838623483733355107366432L
sbaI0
aF31888.363336051494
aF34646.06316677249
aF108.64798171564756
aF44.68624582491927
aF44.96655440773235
aF90.40142842189792
aF90.96849991822599
aF31745.69170060561
as.