(dp0
S'f147fab8-e0dc-4260-b614-3f7a7334e88c'
p1
(lp2
ccopy_reg
_reconstructor
p3
(cuuid
UUID
p4
c__builtin__
object
p5
Ntp6
Rp7
(dp8
S'int'
p9
L128051763955239923640411224094745998880L
sbaI0
aF35882.16865604374
aF36611.92930010892
aF102.0337696170498
aF43.5204373349931
aF43.943575051933024
aF94.06061827832103
aF94.97514482514514
aF35880.366786167855
asS'a7b82e09-29d1-49c1-8aa0-1647c741baf2'
p10
(lp11
g3
(g4
g5
Ntp12
Rp13
(dp14
g9
L128051719508240753134405742123729729056L
sbaI0
aF35478.99822170618
aF34255.70327226322
aF96.55205893413715
aF43.5204373349931
aF43.943575051933024
aF94.06061827832103
aF94.97514482514514
aF34082.266969999
asS'590f12d9-048b-4408-9515-9e0daa4f249b'
p15
(lp16
g3
(g4
g5
Ntp17
Rp18
(dp19
g9
L128051728857163929819413373236676310560L
sbaI0
aF151334.18937387806
aF55188.949423054975
aF36.46826249335379
aF43.5204373349931
aF43.943575051933024
aF94.06061827832103
aF94.97514482514514
aF54240.22376957894
asS'37e3c252-8fd6-4717-8058-2072d6138c3f'
p20
(lp21
g3
(g4
g5
Ntp22
Rp23
(dp24
g9
L128051708337069838623483733355107366432L
sbaI0
aF34067.90170152467
aF34646.06316677249
aF101.6970856330196
aF43.5204373349931
aF43.943575051933024
aF94.06061827832103
aF94.97514482514514
aF33284.94174324548
as.