(dp0
S'a7b82e09-29d1-49c1-8aa0-1647c741baf2'
p1
(lp2
ccopy_reg
_reconstructor
p3
(cuuid
UUID
p4
c__builtin__
object
p5
Ntp6
Rp7
(dp8
S'int'
p9
L187946752729291863845245517169743803936L
sbaI0
aF17743.98965278558
aF17198.72175701392
aF96.9270276502553
aF74.06620608923402
aF70.57412862196706
aF94.58262833373786
aF90.12324148731021
aF16942.030404848552
asS'f147fab8-e0dc-4260-b614-3f7a7334e88c'
p10
(lp11
g3
(g4
g5
Ntp12
Rp13
(dp14
g9
L187946708282292693347224635863078712864L
sbaI0
aF17945.625898839964
aF17306.557796019097
aF96.43886423118751
aF74.06620608923402
aF70.57412862196706
aF94.58262833373786
aF90.12324148731021
aF17288.198663265564
asS'37e3c252-8fd6-4717-8058-2072d6138c3f'
p15
(lp16
g3
(g4
g5
Ntp17
Rp18
(dp19
g9
L187946685543810051751024911584150074912L
sbaI0
aF17038.26279159525
aF17437.99502452163
aF102.34608561809226
aF74.06620608923402
aF70.57412862196706
aF94.58262833373786
aF90.12324148731021
aF16781.634736322212
as.