(dp0
S'a7b82e09-29d1-49c1-8aa0-1647c741baf2'
p1
(lp2
ccopy_reg
_reconstructor
p3
(cuuid
UUID
p4
c__builtin__
object
p5
Ntp6
Rp7
(dp8
S'int'
p9
L187946752729291863845245517169743803936L
sbaI0
aF20592.438376713362
aF17198.72175701392
aF83.51959803100746
aF55.93628994556078
aF54.423470247609885
aF82.89750056196361
aF80.6555039639932
aF16297.699007737188
asS'f147fab8-e0dc-4260-b614-3f7a7334e88c'
p10
(lp11
g3
(g4
g5
Ntp12
Rp13
(dp14
g9
L187946708282292693347224635863078712864L
sbaI0
aF20826.443358266926
aF17306.557796019097
aF83.09895980942596
aF55.93628994556078
aF54.423470247609885
aF82.89750056196361
aF80.6555039639932
aF13134.678521324397
asS'37e3c252-8fd6-4717-8058-2072d6138c3f'
p15
(lp16
g3
(g4
g5
Ntp17
Rp18
(dp19
g9
L187946685543810051751024911584150074912L
sbaI0
aF19773.420941275897
aF17437.99502452163
aF88.18906488821469
aF55.93628994556078
aF54.423470247609885
aF82.89750056196361
aF80.6555039639932
aF15998.099351225443
as.