(dp0
S'c2eddf15-d5d9-4218-a80f-73fa5e29d9ea'
p1
(lp2
ccopy_reg
_reconstructor
p3
(cuuid
UUID
p4
c__builtin__
object
p5
Ntp6
Rp7
(dp8
S'int'
p9
L196193884076461432329583106680473433632L
sbaI0
aF63744.62627029423
aF7200.267521519474
aF11.29548942837694
aF40.98995372808895
aF41.03628175953373
aF95.11934422113568
aF95.22685085554944
aF4373.892211604665
asS'104d40b1-bfca-440e-a184-35e548e21935'
p10
(lp11
g3
(g4
g5
Ntp12
Rp13
(dp14
g9
L196193889543204645817141272085401351712L
sbaI0
aF61970.05574466444
aF9812.925871650408
aF15.834947627096966
aF40.98995372808895
aF41.03628175953373
aF95.11934422113568
aF95.22685085554944
aF61970.05574466444
asS'47b23439-8958-4211-9e48-2366e1abcdb9'
p15
(lp16
g3
(g4
g5
Ntp17
Rp18
(dp19
g9
L196193877579752106164300403971392714272L
sbaI0
aF11420.106595802012
aF13629.76719321606
aF119.3488614040285
aF40.98995372808895
aF41.03628175953373
aF95.11934422113568
aF95.22685085554944
aF10101.678003947874
as.