(dp0
S'c2eddf15-d5d9-4218-a80f-73fa5e29d9ea'
p1
(lp2
ccopy_reg
_reconstructor
p3
(cuuid
UUID
p4
c__builtin__
object
p5
Ntp6
Rp7
(dp8
S'int'
p9
L196193884076461432329583106680473433632L
sbaI0
aF61698.32190033662
aF7200.267521519474
aF11.670118894238826
aF41.166721217452974
aF41.09886508708021
aF92.46289150645305
aF92.31048262288998
aF4381.492342962658
asS'104d40b1-bfca-440e-a184-35e548e21935'
p10
(lp11
g3
(g4
g5
Ntp12
Rp13
(dp14
g9
L196193889543204645817141272085401351712L
sbaI0
aF59980.71792442033
aF9812.925871650408
aF16.360134075112846
aF41.166721217452974
aF41.09886508708021
aF92.46289150645305
aF92.31048262288998
aF59227.917439835306
asS'47b23439-8958-4211-9e48-2366e1abcdb9'
p15
(lp16
g3
(g4
g5
Ntp17
Rp18
(dp19
g9
L196193877579752106164300403971392714272L
sbaI0
aF11053.502924250455
aF13629.76719321606
aF123.30722022349583
aF41.166721217452974
aF41.09886508708021
aF92.46289150645305
aF92.31048262288998
aF9782.946940741414
as.