(dp0
S'c2eddf15-d5d9-4218-a80f-73fa5e29d9ea'
p1
(lp2
ccopy_reg
_reconstructor
p3
(cuuid
UUID
p4
c__builtin__
object
p5
Ntp6
Rp7
(dp8
S'int'
p9
L196193884076461432329583106680473433632L
sbaI0
aF62220.102455703454
aF7200.267521519474
aF11.572252756487474
aF40.717979842874946
aF40.96201372290314
aF92.22842350372127
aF92.78117342214422
aF4384.041548099607
asS'104d40b1-bfca-440e-a184-35e548e21935'
p10
(lp11
g3
(g4
g5
Ntp12
Rp13
(dp14
g9
L196193889543204645817141272085401351712L
sbaI0
aF60487.972762898135
aF9812.925871650408
aF16.22293726079281
aF40.717979842874946
aF40.96201372290314
aF92.22842350372127
aF92.78117342214422
aF60355.34215802815
asS'47b23439-8958-4211-9e48-2366e1abcdb9'
p15
(lp16
g3
(g4
g5
Ntp17
Rp18
(dp19
g9
L196193877579752106164300403971392714272L
sbaI0
aF11146.982012772201
aF13629.76719321606
aF122.27316037290707
aF40.717979842874946
aF40.96201372290314
aF92.22842350372127
aF92.78117342214422
aF10164.879080209135
as.