(dp0
S'01d791dd-72d6-491d-bc94-d260dfcd85d8'
p1
(lp2
ccopy_reg
_reconstructor
p3
(cuuid
UUID
p4
c__builtin__
object
p5
Ntp6
Rp7
(dp8
S'int'
p9
L31036405251346823025141319593714431520L
sbaI0
aF52240.90036364629
aF67222.10174434276
aF128.67715004223334
aF40.03477926516148
aF26.3794233962884
aF76.96579463525224
aF50.71373742984247
aF42604.24589358433
asS'3386f43d-35e1-4c0b-8bb5-6aeba3f50db1'
p10
(lp11
g3
(g4
g5
Ntp12
Rp13
(dp14
g9
L31036428385970277186751194379485623840L
sbaI0
aF57004.838800106845
aF114403.21930983682
aF200.69036544599857
aF40.03477926516148
aF26.3794233962884
aF76.96579463525224
aF50.71373742984247
aF52912.523515025394
asS'c2eddf15-d5d9-4218-a80f-73fa5e29d9ea'
p15
(lp16
g3
(g4
g5
Ntp17
Rp18
(dp19
g9
L31036443201636667354553871341462402592L
sbaI0
aF61615.1894923962
aF118005.15640694764
aF191.51958693807217
aF40.03477926516148
aF26.3794233962884
aF76.96579463525224
aF50.71373742984247
aF48879.47098553564
as.