(dp0
S'c2eddf15-d5d9-4218-a80f-73fa5e29d9ea'
p1
(lp2
ccopy_reg
_reconstructor
p3
(cuuid
UUID
p4
c__builtin__
object
p5
Ntp6
Rp7
(dp8
S'int'
p9
L31036428385970277186751194379485623840L
sbaI0
aF148980.0104144506
aF114403.21930983682
aF76.790986248139
aF20.918654032570217
aF18.98274687361588
aF97.23760835428142
aF88.23879887832001
aF86052.30619130218
asS'5b897d8c-be12-45c5-b893-df30efb130ab'
p10
(lp11
g3
(g4
g5
Ntp12
Rp13
(dp14
g9
L31036443201636667354553871341462402592L
sbaI0
aF119213.58578909602
aF118005.15640694764
aF98.98633249377615
aF20.918654032570217
aF18.98274687361588
aF97.23760835428142
aF88.23879887832001
aF113436.52655063037
asS'65127aaa-525f-40ec-855f-cd816c7dae9e'
p15
(lp16
g3
(g4
g5
Ntp17
Rp18
(dp19
g9
L31036405251346823025141319593714431520L
sbaI0
aF71717.11856326801
aF67222.10174434276
aF93.73229584654909
aF20.918654032570217
aF18.98274687361588
aF97.23760835428142
aF88.23879887832001
aF63278.745641422756
as.