(dp0
S'104d40b1-bfca-440e-a184-35e548e21935'
p1
(lp2
ccopy_reg
_reconstructor
p3
(cuuid
UUID
p4
c__builtin__
object
p5
Ntp6
Rp7
(dp8
S'int'
p9
L31036443201636667354553871341462402592L
sbaI0
aF60502.79361738795
aF118005.15640694764
aF195.0408391936369
aF42.9058149785389
aF25.237511854504856
aF83.31550035333748
aF49.006782154892015
aF45447.29800975421
asS'3386f43d-35e1-4c0b-8bb5-6aeba3f50db1'
p10
(lp11
g3
(g4
g5
Ntp12
Rp13
(dp14
g9
L31036428385970277186751194379485623840L
sbaI0
aF57578.59374661189
aF114403.21930983682
aF198.69054081677476
aF42.9058149785389
aF25.237511854504856
aF83.31550035333748
aF49.006782154892015
aF57578.59374661189
asS'f24dd147-92e7-4e5a-bdc3-792421d81442'
p15
(lp16
g3
(g4
g5
Ntp17
Rp18
(dp19
g9
L31036405251346823025141319593714431520L
sbaI0
aF59215.04738321517
aF67222.10174434276
aF113.52199266059732
aF42.9058149785389
aF25.237511854504856
aF83.31550035333748
aF49.006782154892015
aF36084.11275124587
as.