(dp0
S'590f12d9-048b-4408-9515-9e0daa4f249b'
p1
(lp2
ccopy_reg
_reconstructor
p3
(cuuid
UUID
p4
c__builtin__
object
p5
Ntp6
Rp7
(dp8
S'int'
p9
L254042373443175680743600236851102397984L
sbaI0
aF93372.34685873271
aF73101.47178807293
aF78.29027998907587
aF52.18027689538387
aF52.71328942278419
aF86.1992073281816
aF87.0797173616951
aF65279.11984097467
asS'07fbb88c-8499-4d43-94e4-c3234ae258fa'
p10
(lp11
g3
(g4
g5
Ntp12
Rp13
(dp14
g9
L254042382792098857426225463761169987104L
sbaI0
aF21392.835302291736
aF25114.825689987756
aF117.39830338102635
aF52.18027689538387
aF52.71328942278419
aF86.1992073281816
aF87.0797173616951
aF19557.05556644511
asS'a7b82e09-29d1-49c1-8aa0-1647c741baf2'
p15
(lp16
g3
(g4
g5
Ntp17
Rp18
(dp19
g9
L254042298810246592304696800914694649376L
sbaI0
aF21890.34310001946
aF22470.97924829418
aF102.65247623402578
aF52.18027689538387
aF52.71328942278419
aF86.1992073281816
aF87.0797173616951
aF21298.308379586197
asS'f147fab8-e0dc-4260-b614-3f7a7334e88c'
p20
(lp21
g3
(g4
g5
Ntp22
Rp23
(dp24
g9
L254042335096745023839575554657887106592L
sbaI0
aF22139.096998883335
aF22997.517193938147
aF103.87739479662656
aF52.18027689538387
aF52.71328942278419
aF86.1992073281816
aF87.0797173616951
aF20566.51120331873
asS'37e3c252-8fd6-4717-8058-2072d6138c3f'
p25
(lp26
g3
(g4
g5
Ntp27
Rp28
(dp29
g9
L254042323291748809213095159985364186656L
sbaI0
aF21019.704453995968
aF22816.859044749755
aF108.54985661043459
aF52.18027689538387
aF52.71328942278419
aF86.1992073281816
aF87.0797173616951
aF20555.928285954542
as.