(dp0
S'590f12d9-048b-4408-9515-9e0daa4f249b'
p1
(lp2
ccopy_reg
_reconstructor
p3
(cuuid
UUID
p4
c__builtin__
object
p5
Ntp6
Rp7
(dp8
S'int'
p9
L254042373443175680743600236851102397984L
sbaI0
aF96552.0742037859
aF73101.47178807293
aF75.71196413013627
aF53.67212695397916
aF54.29428373780637
aF91.68304574746324
aF92.74581765740888
aF70005.76892377777
asS'07fbb88c-8499-4d43-94e4-c3234ae258fa'
p10
(lp11
g3
(g4
g5
Ntp12
Rp13
(dp14
g9
L254042382792098857426225463761169987104L
sbaI0
aF22121.352745489687
aF25114.825689987756
aF113.53205194518861
aF53.67212695397916
aF54.29428373780637
aF91.68304574746324
aF92.74581765740888
aF21612.5312845697
asS'a7b82e09-29d1-49c1-8aa0-1647c741baf2'
p15
(lp16
g3
(g4
g5
Ntp17
Rp18
(dp19
g9
L254042298810246592304696800914694649376L
sbaI0
aF22635.802809338293
aF22470.97924829418
aF99.27184574617289
aF53.67212695397916
aF54.29428373780637
aF91.68304574746324
aF92.74581765740888
aF21422.38108188521
asS'f147fab8-e0dc-4260-b614-3f7a7334e88c'
p20
(lp21
g3
(g4
g5
Ntp22
Rp23
(dp24
g9
L254042335096745023839575554657887106592L
sbaI0
aF22893.02784126259
aF22997.517193938147
aF100.45642434631223
aF53.67212695397916
aF54.29428373780637
aF91.68304574746324
aF92.74581765740888
aF21902.97632974857
asS'37e3c252-8fd6-4717-8058-2072d6138c3f'
p25
(lp26
g3
(g4
g5
Ntp27
Rp28
(dp29
g9
L254042323291748809213095159985364186656L
sbaI0
aF21735.51519760324
aF22816.859044749755
aF104.97500904540674
aF53.67212695397916
aF54.29428373780637
aF91.68304574746324
aF92.74581765740888
aF21256.504634472032
as.