(dp0
S'590f12d9-048b-4408-9515-9e0daa4f249b'
p1
(lp2
ccopy_reg
_reconstructor
p3
(cuuid
UUID
p4
c__builtin__
object
p5
Ntp6
Rp7
(dp8
S'int'
p9
L254042373443175680743600236851102397984L
sbaI0
aF94908.51323432976
aF73101.47178807293
aF77.02309234113162
aF54.374728560381236
aF54.77680016239702
aF91.30212596879943
aF91.97725562972191
aF72500.14029523326
asS'07fbb88c-8499-4d43-94e4-c3234ae258fa'
p10
(lp11
g3
(g4
g5
Ntp12
Rp13
(dp14
g9
L254042382792098857426225463761169987104L
sbaI0
aF21744.79126543989
aF25114.825689987756
aF115.49812266951504
aF54.374728560381236
aF54.77680016239702
aF91.30212596879943
aF91.97725562972191
aF21728.852574302146
asS'a7b82e09-29d1-49c1-8aa0-1647c741baf2'
p15
(lp16
g3
(g4
g5
Ntp17
Rp18
(dp19
g9
L254042298810246592304696800914694649376L
sbaI0
aF22250.484085566386
aF22470.97924829418
aF100.99096793525865
aF54.374728560381236
aF54.77680016239702
aF91.30212596879943
aF91.97725562972191
aF21155.67412659449
asS'f147fab8-e0dc-4260-b614-3f7a7334e88c'
p20
(lp21
g3
(g4
g5
Ntp22
Rp23
(dp24
g9
L254042335096745023839575554657887106592L
sbaI0
aF22503.33049562964
aF22997.517193938147
aF102.19606026052223
aF54.374728560381236
aF54.77680016239702
aF91.30212596879943
aF91.97725562972191
aF20679.8626468451
asS'37e3c252-8fd6-4717-8058-2072d6138c3f'
p25
(lp26
g3
(g4
g5
Ntp27
Rp28
(dp29
g9
L254042323291748809213095159985364186656L
sbaI0
aF21365.521650345003
aF22816.859044749755
aF106.7928947308493
aF54.374728560381236
aF54.77680016239702
aF91.30212596879943
aF91.97725562972191
aF20392.33717817261
as.