(dp0
S'e6c80f54-a553-4a09-a2a2-be3089d67f81'
p1
(lp2
ccopy_reg
_reconstructor
p3
(cuuid
UUID
p4
c__builtin__
object
p5
Ntp6
Rp7
(dp8
S'int'
p9
L57771262655123694879513311631744087584L
sbaI0
aF46123.674751981074
aF38392.66989725516
aF83.23853228022806
aF50.84158238047153
aF39.48350611617848
aF87.37310102281126
aF67.853835523985
aF35800.716414459675
asS'd3c47541-2039-49d0-8472-4c0c55b619b5'
p10
(lp11
g3
(g4
g5
Ntp12
Rp13
(dp14
g9
L57771250137074017624186067206032504352L
sbaF3481.987810145049
aF42251.20178382366
aF37822.43713702095
aF89.51801496804214
aF50.84158238047153
aF39.48350611617848
aF87.37310102281126
aF67.853835523985
aF30462.285397140608
as.