(dp0
S'e6c80f54-a553-4a09-a2a2-be3089d67f81'
p1
(lp2
ccopy_reg
_reconstructor
p3
(cuuid
UUID
p4
c__builtin__
object
p5
Ntp6
Rp7
(dp8
S'int'
p9
L57771262655123694879513311631744087584L
sbaI0
aF49946.33117258758
aF38392.66989725516
aF76.86784793980323
aF52.37958282258596
aF43.973731608310665
aF97.47661010297261
aF81.8336088180483
aF37961.01605560784
asS'd3c47541-2039-49d0-8472-4c0c55b619b5'
p10
(lp11
g3
(g4
g5
Ntp12
Rp13
(dp14
g9
L57771250137074017624186067206032504352L
sbaF3481.987810145049
aF45752.91383616479
aF37822.43713702095
aF82.6667286644478
aF52.37958282258596
aF43.973731608310665
aF97.47661010297261
aF81.8336088180483
aF40247.91201132708
as.