(dp0
S'e6c80f54-a553-4a09-a2a2-be3089d67f81'
p1
(lp2
ccopy_reg
_reconstructor
p3
(cuuid
UUID
p4
c__builtin__
object
p5
Ntp6
Rp7
(dp8
S'int'
p9
L57771262655123694879513311631744087584L
sbaI0
aF45843.54577941859
aF38392.66989725516
aF83.74716493786461
aF50.179157110463905
aF41.06995392868962
aF85.71095867416575
aF70.15153953627788
aF32365.82994081257
asS'd3c47541-2039-49d0-8472-4c0c55b619b5'
p10
(lp11
g3
(g4
g5
Ntp12
Rp13
(dp14
g9
L57771250137074017624186067206032504352L
sbaF3481.987810145049
aF41994.59201001708
aF37822.43713702095
aF90.06501867668834
aF50.179157110463905
aF41.06995392868962
aF85.71095867416575
aF70.15153953627788
aF35921.67183466455
as.