(dp0
S'f24dd147-92e7-4e5a-bdc3-792421d81442'
p1
(lp2
ccopy_reg
_reconstructor
p3
(cuuid
UUID
p4
c__builtin__
object
p5
Ntp6
Rp7
(dp8
S'int'
p9
L123728288435129451821915782431443170848L
sbaI0
aF24019.709725913774
aF19567.339735445134
aF81.46368111324351
aF92.6129760262555
aF89.71036377689069
aF92.61153695409871
aF89.70896980714448
aF22509.20229527589
as.