(dp0
S'bc63d18c-7a19-498a-927e-c4805b875e96'
p1
(lp2
ccopy_reg
_reconstructor
p3
(cuuid
UUID
p4
c__builtin__
object
p5
Ntp6
Rp7
(dp8
S'int'
p9
L175815837048640891448401209243114059296L
sbaI0
aF23303.14842603736
aF22805.68469260571
aF97.8652509766628
aF94.60046344443313
aF85.2836287841198
aF93.14113453812564
aF83.96802355146077
aF22434.7512136857
as.