(dp0
S'bc63d18c-7a19-498a-927e-c4805b875e96'
p1
(lp2
ccopy_reg
_reconstructor
p3
(cuuid
UUID
p4
c__builtin__
object
p5
Ntp6
Rp7
(dp8
S'int'
p9
L175815837048640891448401209243114059296L
sbaI0
aF23573.07814588823
aF22805.68469260571
aF96.74461922820049
aF94.02641880501153
aF84.93796263150811
aF93.6482895705846
aF84.59638281604965
aF22229.222021694426
as.