(dp0
S'bc63d18c-7a19-498a-927e-c4805b875e96'
p1
(lp2
ccopy_reg
_reconstructor
p3
(cuuid
UUID
p4
c__builtin__
object
p5
Ntp6
Rp7
(dp8
S'int'
p9
L175815837048640891448401209243114059296L
sbaI0
aF22632.894408981145
aF22805.68469260571
aF100.76344757547227
aF94.79307443923565
aF85.36660353570927
aF90.64635904798851
aF81.63224835339125
aF22143.728387322044
as.