(dp0
S'07fbb88c-8499-4d43-94e4-c3234ae258fa'
p1
(lp2
ccopy_reg
_reconstructor
p3
(cuuid
UUID
p4
c__builtin__
object
p5
Ntp6
Rp7
(dp8
S'int'
p9
L61488871146793782062509977974113744416L
sbaI0
aF38083.84700361095
aF38523.92869438428
aF101.15555996937915
aF34.58752641852064
aF31.164340994144062
aF81.00344966872825
aF72.98640257276328
aF34339.76682575398
asS'f147fab8-e0dc-4260-b614-3f7a7334e88c'
p10
(lp11
g3
(g4
g5
Ntp12
Rp13
(dp14
g9
L61488897133631086742571951319065212448L
sbaI0
aF39412.353294434586
aF38243.25050531031
aF97.0336640890475
aF34.58752641852064
aF31.164340994144062
aF81.00344966872825
aF72.98640257276328
aF31226.261991888896
asS'a7b82e09-29d1-49c1-8aa0-1647c741baf2'
p15
(lp16
g3
(g4
g5
Ntp17
Rp18
(dp19
g9
L61488861639414280349231784227722933792L
sbaI0
aF38969.51786416004
aF59288.51173061003
aF152.14073711991495
aF34.58752641852064
aF31.164340994144062
aF81.00344966872825
aF72.98640257276328
aF19645.503224132528
asS'590f12d9-048b-4408-9515-9e0daa4f249b'
p20
(lp21
g3
(g4
g5
Ntp22
Rp23
(dp24
g9
L61488888418533210170794345102668641824L
sbaI0
aF166222.85554431065
aF58474.51711561543
aF35.17838562220324
aF34.58752641852064
aF31.164340994144062
aF81.00344966872825
aF72.98640257276328
aF58438.70698885482
asS'37e3c252-8fd6-4717-8058-2072d6138c3f'
p25
(lp26
g3
(g4
g5
Ntp27
Rp28
(dp29
g9
L61488851339753153495381307424529626656L
sbaI0
aF37419.593858199136
aF37824.06851061437
aF101.08091673562247
aF34.58752641852064
aF31.164340994144062
aF81.00344966872825
aF72.98640257276328
aF25487.631339461426
as.