(dp0
S'a7b82e09-29d1-49c1-8aa0-1647c741baf2'
p1
(lp2
ccopy_reg
_reconstructor
p3
(cuuid
UUID
p4
c__builtin__
object
p5
Ntp6
Rp7
(dp8
S'int'
p9
L61488861639414280349231784227722933792L
sbaI0
aF68942.10600423157
aF59288.51173061003
aF85.99753498532665
aF13.717676790079341
aF14.335894452375102
aF56.83607644674847
aF59.39752084091755
aF30986.459831648936
asS'f147fab8-e0dc-4260-b614-3f7a7334e88c'
p10
(lp11
g3
(g4
g5
Ntp12
Rp13
(dp14
g9
L61488871146793782062509977974113744416L
sbaI0
aF69725.53902700693
aF38523.92869438428
aF55.25081517041085
aF13.717676790079341
aF14.335894452375102
aF56.83607644674847
aF59.39752084091755
aF32194.88001470647
asS'efba248c-a60c-4693-a961-394feba25dc5'
p15
(lp16
g3
(g4
g5
Ntp17
Rp18
(dp19
g9
L61488888418533210170794345102668641824L
sbaI0
aF41071.147964938355
aF58474.51711561543
aF142.373710044662
aF13.717676790079341
aF14.335894452375102
aF56.83607644674847
aF59.39752084091755
aF9472.03890628788
asS'37e3c252-8fd6-4717-8058-2072d6138c3f'
p20
(lp21
g3
(g4
g5
Ntp22
Rp23
(dp24
g9
L61488897133631086742571951319065212448L
sbaI0
aF66200.09042451781
aF38243.25050531031
aF57.769181673423475
aF13.717676790079341
aF14.335894452375102
aF56.83607644674847
aF59.39752084091755
aF33482.366052095276
as.