(dp0
S'07fbb88c-8499-4d43-94e4-c3234ae258fa'
p1
(lp2
ccopy_reg
_reconstructor
p3
(cuuid
UUID
p4
c__builtin__
object
p5
Ntp6
Rp7
(dp8
S'int'
p9
L61488871146793782062509977974113744416L
sbaI0
aF34258.13539572093
aF38523.92869438428
aF112.45191324451412
aF43.061990738324155
aF38.760574004742324
aF90.71957844210255
aF81.65769565211207
aF33941.18045700502
asS'f147fab8-e0dc-4260-b614-3f7a7334e88c'
p10
(lp11
g3
(g4
g5
Ntp12
Rp13
(dp14
g9
L61488897133631086742571951319065212448L
sbaI0
aF35453.1866304554
aF38243.25050531031
aF107.86971254216724
aF43.061990738324155
aF38.760574004742324
aF90.71957844210255
aF81.65769565211207
aF33850.62579384917
asS'a7b82e09-29d1-49c1-8aa0-1647c741baf2'
p15
(lp16
g3
(g4
g5
Ntp17
Rp18
(dp19
g9
L61488861639414280349231784227722933792L
sbaI0
aF35054.836218877244
aF59288.51173061003
aF169.13076233025674
aF43.061990738324155
aF38.760574004742324
aF90.71957844210255
aF81.65769565211207
aF32449.152636329625
asS'590f12d9-048b-4408-9515-9e0daa4f249b'
p20
(lp21
g3
(g4
g5
Ntp22
Rp23
(dp24
g9
L61488888418533210170794345102668641824L
sbaI0
aF149524.9440152522
aF58474.51711561543
aF39.106864410295834
aF43.061990738324155
aF38.760574004742324
aF90.71957844210255
aF81.65769565211207
aF53594.97754068063
asS'37e3c252-8fd6-4717-8058-2072d6138c3f'
p25
(lp26
g3
(g4
g5
Ntp27
Rp28
(dp29
g9
L61488851339753153495381307424529626656L
sbaI0
aF33660.6097783537
aF37824.06851061437
aF112.36893437069608
aF43.061990738324155
aF38.760574004742324
aF90.71957844210255
aF81.65769565211207
aF32248.66158681686
as.