(dp0
S'56d57d74-cbe5-4bf5-83da-2e0f89de257f'
p1
(lp2
ccopy_reg
_reconstructor
p3
(cuuid
UUID
p4
c__builtin__
object
p5
Ntp6
Rp7
(dp8
S'int'
p9
L210419815084343501081566123372040599072L
sbaI0
aF65962.70486818657
aF22238.583275142053
aF33.713874104437444
aF16.90355931215186
aF12.98938494694676
aF86.38736987757531
aF66.38358118384066
aF25837.820405082966
asS'480c3c42-0e7e-483e-bd06-d5391c075842'
p10
(lp11
g3
(g4
g5
Ntp12
Rp13
(dp14
g9
L210419765962882742238040199569724847648L
sbaI0
aF190460.6154886779
aF107941.23593037773
aF56.673783004126854
aF16.90355931215186
aF12.98938494694676
aF86.38736987757531
aF66.38358118384066
aF86690.88722659207
asS'9465ee49-8427-4a44-bb62-b02c151746b5'
p15
(lp16
g3
(g4
g5
Ntp17
Rp18
(dp19
g9
L210419787512942946116433852413300618784L
sbaF12851.658797690152
aF17873.5578666866
aF22778.464163996145
aF127.44224923707827
aF16.90355931215186
aF12.98938494694676
aF86.38736987757531
aF66.38358118384066
aF17750.03403824406
asS'9624ce3b-a91c-4fc2-bca0-defc7f924875'
p20
(lp21
g3
(g4
g5
Ntp22
Rp23
(dp24
g9
L210419796228040822683945705357647197728L
sbaI0
aF129253.90947750247
aF106193.77369858534
aF82.15904194145021
aF16.90355931215186
aF12.98938494694676
aF86.38736987757531
aF66.38358118384066
aF40669.32047416575
as.