(dp0
S'56d57d74-cbe5-4bf5-83da-2e0f89de257f'
p1
(lp2
ccopy_reg
_reconstructor
p3
(cuuid
UUID
p4
c__builtin__
object
p5
Ntp6
Rp7
(dp8
S'int'
p9
L210419815084343501081566123372040599072L
sbaI0
aF61989.04794841633
aF22238.583275142053
aF35.875019880362906
aF20.051721347048247
aF18.063292075422556
aF96.30309860717554
aF86.75320027652913
aF13751.16607908834
asS'480c3c42-0e7e-483e-bd06-d5391c075842'
p10
(lp11
g3
(g4
g5
Ntp12
Rp13
(dp14
g9
L210419765962882742238040199569724847648L
sbaI0
aF178987.08443514304
aF107941.23593037773
aF60.30671781208372
aF20.051721347048247
aF18.063292075422556
aF96.30309860717554
aF86.75320027652913
aF86273.50870409912
asS'1eba1006-6705-4931-9b18-c510195cc657'
p15
(lp16
g3
(g4
g5
Ntp17
Rp18
(dp19
g9
L210419787512942946116433852413300618784L
sbaF12851.658797690152
aF34610.38399744156
aF22778.464163996145
aF65.81395966505299
aF20.051721347048247
aF18.063292075422556
aF96.30309860717554
aF86.75320027652913
aF34606.80389055856
asS'9624ce3b-a91c-4fc2-bca0-defc7f924875'
p20
(lp21
g3
(g4
g5
Ntp22
Rp23
(dp24
g9
L210419796228040822683945705357647197728L
sbaI0
aF121467.52938849629
aF106193.77369858534
aF87.42564719410728
aF20.051721347048247
aF18.063292075422556
aF96.30309860717554
aF86.75320027652913
aF108045.32868877369
as.