(dp0
S'56d57d74-cbe5-4bf5-83da-2e0f89de257f'
p1
(lp2
ccopy_reg
_reconstructor
p3
(cuuid
UUID
p4
c__builtin__
object
p5
Ntp6
Rp7
(dp8
S'int'
p9
L210419815084343501081566123372040599072L
sbaI0
aF59227.44661940024
aF22238.583275142053
aF37.54776635577212
aF19.276438306328078
aF17.322676442118194
aF88.4552138207931
aF79.48984269220327
aF13685.468466132064
asS'480c3c42-0e7e-483e-bd06-d5391c075842'
p10
(lp11
g3
(g4
g5
Ntp12
Rp13
(dp14
g9
L210419765962882742238040199569724847648L
sbaI0
aF171013.24088355122
aF107941.23593037773
aF63.118642376866376
aF19.276438306328078
aF17.322676442118194
aF88.4552138207931
aF79.48984269220327
aF82328.00031219353
asS'1eba1006-6705-4931-9b18-c510195cc657'
p15
(lp16
g3
(g4
g5
Ntp17
Rp18
(dp19
g9
L210419787512942946116433852413300618784L
sbaF12851.658797690152
aF33068.49739636603
aF22778.464163996145
aF68.88267069098616
aF19.276438306328078
aF17.322676442118194
aF88.4552138207931
aF79.48984269220327
aF30467.873234999006
asS'9624ce3b-a91c-4fc2-bca0-defc7f924875'
p20
(lp21
g3
(g4
g5
Ntp22
Rp23
(dp24
g9
L210419796228040822683945705357647197728L
sbaI0
aF116056.1720327469
aF106193.77369858534
aF91.50204753317321
aF19.276438306328078
aF17.322676442118194
aF88.4552138207931
aF79.48984269220327
aF96550.0310268924
as.