(dp0
S'c2eddf15-d5d9-4218-a80f-73fa5e29d9ea'
p1
(lp2
ccopy_reg
_reconstructor
p3
(cuuid
UUID
p4
c__builtin__
object
p5
Ntp6
Rp7
(dp8
S'int'
p9
L187277859301434196138804449518499313184L
sbaI0
aF26056.36946916371
aF37475.96295854584
aF143.8264951028446
aF89.55642880546243
aF76.20422330548615
aF94.85936793644257
aF80.71653317651088
aF20203.79110277524
as.