(dp0
S'c2eddf15-d5d9-4218-a80f-73fa5e29d9ea'
p1
(lp2
ccopy_reg
_reconstructor
p3
(cuuid
UUID
p4
c__builtin__
object
p5
Ntp6
Rp7
(dp8
S'int'
p9
L187277859301434196138804449518499313184L
sbaI0
aF24723.003375319615
aF37475.96295854584
aF151.58337516532154
aF90.50143393587804
aF77.16925177402051
aF90.95493005623021
aF77.55594129669474
aF18704.49553550966
as.