(dp0
S'c2eddf15-d5d9-4218-a80f-73fa5e29d9ea'
p1
(lp2
ccopy_reg
_reconstructor
p3
(cuuid
UUID
p4
c__builtin__
object
p5
Ntp6
Rp7
(dp8
S'int'
p9
L187277859301434196138804449518499313184L
sbaI0
aF26236.046075856666
aF37475.96295854584
aF142.8415045856797
aF89.04490215305817
aF75.81056349433604
aF94.9679365172789
aF80.85328421040869
aF20311.358933916992
as.