(dp0
S'98284774-39a3-4ebe-93d2-96fc3bc4fd05'
p1
(lp2
ccopy_reg
_reconstructor
p3
(cuuid
UUID
p4
c__builtin__
object
p5
Ntp6
Rp7
(dp8
S'int'
p9
L281692939649634919734699209966609937952L
sbaI0
aF4363.369528081994
aF1100.4371539014505
aF25.219893635393507
aF57.83984615488444
aF47.32076661142274
aF92.47676528785125
aF75.65842093437483
aF626.0520602550303
asS'9e53c6df-b341-4064-a40e-7f674bda1c48'
p10
(lp11
g3
(g4
g5
Ntp12
Rp13
(dp14
g9
L281692900114781825119444274743956125216L
sbaI0
aF28941.725072516896
aF58020.960216407235
aF200.47512741907713
aF57.83984615488444
aF47.32076661142274
aF92.47676528785125
aF75.65842093437483
aF27746.983939274476
asS'e6c80f54-a553-4a09-a2a2-be3089d67f81'
p15
(lp16
g3
(g4
g5
Ntp17
Rp18
(dp19
g9
L281692964210365299155154016913505039904L
sbaI0
aF31522.873244058388
aF23504.810260613573
aF74.56430154267075
aF57.83984615488444
aF47.32076661142274
aF92.47676528785125
aF75.65842093437483
aF23504.810260613573
asS'ac6ea2c8-cba8-4aac-829b-703f880a79c4'
p20
(lp21
g3
(g4
g5
Ntp22
Rp23
(dp24
g9
L281692915168132702826115077411311367712L
sbaI0
aF19192.502199607025
aF21085.645096959528
aF109.8639712407654
aF57.83984615488444
aF47.32076661142274
aF92.47676528785125
aF75.65842093437483
aF13868.638906809547
as.