(dp0
S'98284774-39a3-4ebe-93d2-96fc3bc4fd05'
p1
(lp2
ccopy_reg
_reconstructor
p3
(cuuid
UUID
p4
c__builtin__
object
p5
Ntp6
Rp7
(dp8
S'int'
p9
L281692939649634919734699209966609937952L
sbaI0
aF4603.71991851715
aF1100.4371539014505
aF23.903216819842925
aF57.49952640616925
aF47.563025722542044
aF96.9966351222661
aF80.23463391213915
aF827.3215770225956
asS'e6c80f54-a553-4a09-a2a2-be3089d67f81'
p10
(lp11
g3
(g4
g5
Ntp12
Rp13
(dp14
g9
L281692964210365299155154016913505039904L
sbaI0
aF33259.268670365054
aF23504.810260613573
aF70.67145851453138
aF57.49952640616925
aF47.563025722542044
aF96.9966351222661
aF80.23463391213915
aF22949.320855285758
asS'ac6ea2c8-cba8-4aac-829b-703f880a79c4'
p15
(lp16
g3
(g4
g5
Ntp17
Rp18
(dp19
g9
L281692915168132702826115077411311367712L
sbaI0
aF20249.695583622542
aF21085.645096959528
aF104.12820780384018
aF57.49952640616925
aF47.563025722542044
aF96.9966351222661
aF80.23463391213915
aF14826.747949451843
asS'd3c47541-2039-49d0-8472-4c0c55b619b5'
p20
(lp21
g3
(g4
g5
Ntp22
Rp23
(dp24
g9
L281692900114781825119444274743956125216L
sbaI0
aF30466.87149994787
aF58020.960216407235
aF190.43950809490406
aF57.49952640616925
aF47.563025722542044
aF96.9966351222661
aF80.23463391213915
aF28789.50948868369
as.