(dp0
S'98284774-39a3-4ebe-93d2-96fc3bc4fd05'
p1
(lp2
ccopy_reg
_reconstructor
p3
(cuuid
UUID
p4
c__builtin__
object
p5
Ntp6
Rp7
(dp8
S'int'
p9
L281692939649634919734699209966609937952L
sbaI0
aF4435.12565650754
aF1100.4371539014505
aF24.811859665955772
aF58.17790403883443
aF48.002255784303486
aF94.5469463294815
aF78.0101445095565
aF1100.4371539014505
asS'9e53c6df-b341-4064-a40e-7f674bda1c48'
p10
(lp11
g3
(g4
g5
Ntp12
Rp13
(dp14
g9
L281692900114781825119444274743956125216L
sbaI0
aF29417.675167459525
aF58020.960216407235
aF197.2316299167901
aF58.17790403883443
aF48.002255784303486
aF94.5469463294815
aF78.0101445095565
aF28031.118271720094
asS'e6c80f54-a553-4a09-a2a2-be3089d67f81'
p15
(lp16
g3
(g4
g5
Ntp17
Rp18
(dp19
g9
L281692964210365299155154016913505039904L
sbaI0
aF32041.270626238656
aF23504.810260613573
aF73.35792183399069
aF58.17790403883443
aF48.002255784303486
aF94.5469463294815
aF78.0101445095565
aF22701.819275069895
asS'ac6ea2c8-cba8-4aac-829b-703f880a79c4'
p20
(lp21
g3
(g4
g5
Ntp22
Rp23
(dp24
g9
L281692915168132702826115077411311367712L
sbaI0
aF19508.1251702904
aF21085.645096959528
aF108.08647634202997
aF58.17790403883443
aF48.002255784303486
aF94.5469463294815
aF78.0101445095565
aF15489.316935280962
as.