(dp0
S'590f12d9-048b-4408-9515-9e0daa4f249b'
p1
(lp2
ccopy_reg
_reconstructor
p3
(cuuid
UUID
p4
c__builtin__
object
p5
Ntp6
Rp7
(dp8
S'int'
p9
L80294825991699874370376174493296670240L
sbaI0
aF267742.65175877424
aF202128.06028372358
aF75.4934109137879
aF24.468929151528446
aF20.6388569422896
aF98.18446594269238
aF82.81584919378271
aF158344.6499096833
as.