(dp0
S'a7b82e09-29d1-49c1-8aa0-1647c741baf2'
p1
(lp2
ccopy_reg
_reconstructor
p3
(cuuid
UUID
p4
c__builtin__
object
p5
Ntp6
Rp7
(dp8
S'int'
p9
L80294825991699874370376174493296670240L
sbaI0
aF131004.79863618674
aF202128.06028372358
aF154.29057743529927
aF11.485303886800653
aF7.531140462967591
aF96.18462562469455
aF63.07015757676307
aF109595.78430270478
as.