(dp0
S'37e3c252-8fd6-4717-8058-2072d6138c3f'
p1
(lp2
ccopy_reg
_reconstructor
p3
(cuuid
UUID
p4
c__builtin__
object
p5
Ntp6
Rp7
(dp8
S'int'
p9
L80294825991699874370376174493296670240L
sbaI0
aF91738.59190858465
aF202128.06028372358
aF220.33045862000958
aF15.99241248330052
aF7.3955490216824655
aF97.67152761782725
aF45.167329899383546
aF67106.54566623943
as.