(dp0
S'01d791dd-72d6-491d-bc94-d260dfcd85d8'
p1
(lp2
ccopy_reg
_reconstructor
p3
(cuuid
UUID
p4
c__builtin__
object
p5
Ntp6
Rp7
(dp8
S'int'
p9
L268695794104534524154728732071977203232L
sbaI0
aF20771.469924975027
aF20560.58651967054
aF98.98474491181327
aF85.39837810901966
aF76.46172371006432
aF90.93052639241131
aF81.414951194406
aF20004.072716718067
asS'3386f43d-35e1-4c0b-8bb5-6aeba3f50db1'
p10
(lp11
g3
(g4
g5
Ntp12
Rp13
(dp14
g9
L268695874204206826074495451092249916960L
sbaI0
aF22665.6563434433
aF24559.805506645713
aF108.35691291926936
aF85.39837810901966
aF76.46172371006432
aF90.93052639241131
aF81.414951194406
aF21770.172226342853
asS'f24dd147-92e7-4e5a-bdc3-792421d81442'
p15
(lp16
g3
(g4
g5
Ntp17
Rp18
(dp19
g9
L268695844255961395682425814570049910304L
sbaI0
aF23309.841852948073
aF19443.329953091747
aF83.41253482435225
aF85.39837810901966
aF76.46172371006432
aF90.93052639241131
aF81.414951194406
aF22782.366091047676
asS'104d40b1-bfca-440e-a184-35e548e21935'
p20
(lp21
g3
(g4
g5
Ntp22
Rp23
(dp24
g9
L268695891713630741726545045570995271200L
sbaF5462.74897271522
aF23816.759644823454
aF5187.296468609924
aF21.780026107528766
aF85.39837810901966
aF76.46172371006432
aF90.93052639241131
aF81.414951194406
aF14860.83632351194
as.