(dp0
S'01d791dd-72d6-491d-bc94-d260dfcd85d8'
p1
(lp2
ccopy_reg
_reconstructor
p3
(cuuid
UUID
p4
c__builtin__
object
p5
Ntp6
Rp7
(dp8
S'int'
p9
L268695794104534524154728732071977203232L
sbaI0
aF21917.815832002798
aF20560.58651967054
aF93.80764341330705
aF83.94712142639338
aF75.35235457737657
aF94.3182932798521
aF84.66169366614997
aF20348.440728007372
asS'3386f43d-35e1-4c0b-8bb5-6aeba3f50db1'
p10
(lp11
g3
(g4
g5
Ntp12
Rp13
(dp14
g9
L268695874204206826074495451092249916960L
sbaI0
aF23916.539524713175
aF24559.805506645713
aF102.68962815990936
aF83.94712142639338
aF75.35235457737657
aF94.3182932798521
aF84.66169366614997
aF23565.330831938303
asS'f24dd147-92e7-4e5a-bdc3-792421d81442'
p15
(lp16
g3
(g4
g5
Ntp17
Rp18
(dp19
g9
L268695844255961395682425814570049910304L
sbaI0
aF24596.276655015838
aF19443.329953091747
aF79.04989127338806
aF83.94712142639338
aF75.35235457737657
aF94.3182932798521
aF84.66169366614997
aF23036.83906489982
asS'104d40b1-bfca-440e-a184-35e548e21935'
p20
(lp21
g3
(g4
g5
Ntp22
Rp23
(dp24
g9
L268695891713630741726545045570995271200L
sbaF5462.74897271522
aF25131.170470639885
aF5187.296468609924
aF20.640886880577696
aF83.94712142639338
aF75.35235457737657
aF94.3182932798521
aF84.66169366614997
aF15605.674251482686
as.