(dp0
S'01d791dd-72d6-491d-bc94-d260dfcd85d8'
p1
(lp2
ccopy_reg
_reconstructor
p3
(cuuid
UUID
p4
c__builtin__
object
p5
Ntp6
Rp7
(dp8
S'int'
p9
L268695794104534524154728732071977203232L
sbaI0
aF21996.539633270226
aF20560.58651967054
aF93.47191359395559
aF84.1077908368644
aF75.53404306152962
aF94.83823065468553
aF85.17064741415761
aF19930.608689963552
asS'3386f43d-35e1-4c0b-8bb5-6aeba3f50db1'
p10
(lp11
g3
(g4
g5
Ntp12
Rp13
(dp14
g9
L268695874204206826074495451092249916960L
sbaI0
aF24002.44228614615
aF24559.805506645713
aF102.32211044965732
aF84.1077908368644
aF75.53404306152962
aF94.83823065468553
aF85.17064741415761
aF23793.62429739551
asS'f24dd147-92e7-4e5a-bdc3-792421d81442'
p15
(lp16
g3
(g4
g5
Ntp17
Rp18
(dp19
g9
L268695844255961395682425814570049910304L
sbaI0
aF24684.620877366724
aF19443.329953091747
aF78.76697823185648
aF84.1077908368644
aF75.53404306152962
aF94.83823065468553
aF85.17064741415761
aF22886.107465270372
asS'104d40b1-bfca-440e-a184-35e548e21935'
p20
(lp21
g3
(g4
g5
Ntp22
Rp23
(dp24
g9
L268695891713630741726545045570995271200L
sbaF5462.74897271522
aF25221.435909719803
aF5187.296468609924
aF20.567014848709906
aF84.1077908368644
aF75.53404306152962
aF94.83823065468553
aF85.17064741415761
aF16090.798993454904
as.