(dp0
S'a7b82e09-29d1-49c1-8aa0-1647c741baf2'
p1
(lp2
ccopy_reg
_reconstructor
p3
(cuuid
UUID
p4
c__builtin__
object
p5
Ntp6
Rp7
(dp8
S'int'
p9
L103652683191935436155838622712602474016L
sbaI0
aF11835.96254952507
aF12307.575107934754
aF103.98457291864791
aF93.0425414884171
aF94.16912172624873
aF92.07315523870115
aF93.18799792751182
aF11831.907299892508
as.