(dp0
S'a7b82e09-29d1-49c1-8aa0-1647c741baf2'
p1
(lp2
ccopy_reg
_reconstructor
p3
(cuuid
UUID
p4
c__builtin__
object
p5
Ntp6
Rp7
(dp8
S'int'
p9
L103652683191935436155838622712602474016L
sbaI0
aF11937.493341475487
aF12307.575107934754
aF103.10016312363885
aF92.47778997117732
aF93.35257652740901
aF92.29931201277232
aF93.1724102704553
aF11472.260466383024
as.