(dp0
S'a7b82e09-29d1-49c1-8aa0-1647c741baf2'
p1
(lp2
ccopy_reg
_reconstructor
p3
(cuuid
UUID
p4
c__builtin__
object
p5
Ntp6
Rp7
(dp8
S'int'
p9
L103652683191935436155838622712602474016L
sbaI0
aF12083.207230856238
aF12307.575107934754
aF101.8568569816924
aF93.37693781890499
aF94.43018792367789
aF94.33432159588055
aF95.39837056156021
aF12027.334926359978
as.