(dp0
S'5120100e-a0b9-4ed6-8222-b400ebe3c529'
p1
(lp2
ccopy_reg
_reconstructor
p3
(cuuid
UUID
p4
c__builtin__
object
p5
Ntp6
Rp7
(dp8
S'int'
p9
L93568437417612170214886054822027114016L
sbaI0
aF4969.9490421753335
aF6254.511030681795
aF125.8465826833551
aF87.25080000945543
aF82.72164183006836
aF89.39765672074311
aF84.75705596853325
aF4960.143618962552
asS'39b7861e-1601-4895-a2bc-44b4cd8d571d'
p10
(lp11
g3
(g4
g5
Ntp12
Rp13
(dp14
g9
L93568426325669418220284839826796754464L
sbaI0
aF17833.41717476417
aF14558.055803406836
aF81.6335739849553
aF87.25080000945543
aF82.72164183006836
aF89.39765672074311
aF84.75705596853325
aF14098.162531349197
asS'9624ce3b-a91c-4fc2-bca0-defc7f924875'
p15
(lp16
g3
(g4
g5
Ntp17
Rp18
(dp19
g9
L93568467445085763124006912682183276064L
sbaI0
aF18105.907587800528
aF14602.43988373065
aF80.65014036396354
aF87.25080000945543
aF82.72164183006836
aF89.39765672074311
aF84.75705596853325
aF14744.282400133192
as.