(dp0
S'5120100e-a0b9-4ed6-8222-b400ebe3c529'
p1
(lp2
ccopy_reg
_reconstructor
p3
(cuuid
UUID
p4
c__builtin__
object
p5
Ntp6
Rp7
(dp8
S'int'
p9
L93568437417612170214886054822027114016L
sbaI0
aF4701.03230704159
aF6254.511030681795
aF133.04548069821342
aF89.24518626443573
aF85.07507403879382
aF86.49336983296416
aF82.45184026621885
aF4413.187002251408
asS'39b7861e-1601-4895-a2bc-44b4cd8d571d'
p10
(lp11
g3
(g4
g5
Ntp12
Rp13
(dp14
g9
L93568426325669418220284839826796754464L
sbaI0
aF16868.476833883622
aF14558.055803406836
aF86.3033215551753
aF89.24518626443573
aF85.07507403879382
aF86.49336983296416
aF82.45184026621885
aF13730.507788244482
asS'9624ce3b-a91c-4fc2-bca0-defc7f924875'
p15
(lp16
g3
(g4
g5
Ntp17
Rp18
(dp19
g9
L93568467445085763124006912682183276064L
sbaI0
aF17126.22318584265
aF14602.43988373065
aF85.26363183099075
aF89.24518626443573
aF85.07507403879382
aF86.49336983296416
aF82.45184026621885
aF14711.770745831689
as.