(dp0
S'5120100e-a0b9-4ed6-8222-b400ebe3c529'
p1
(lp2
ccopy_reg
_reconstructor
p3
(cuuid
UUID
p4
c__builtin__
object
p5
Ntp6
Rp7
(dp8
S'int'
p9
L93568437417612170214886054822027114016L
sbaI0
aF5096.541206907487
aF6254.511030681795
aF122.72069972091815
aF84.97461702242322
aF80.40326381044348
aF89.28315685428102
aF84.48001845644856
aF5096.541206907487
asS'39b7861e-1601-4895-a2bc-44b4cd8d571d'
p10
(lp11
g3
(g4
g5
Ntp12
Rp13
(dp14
g9
L93568426325669418220284839826796754464L
sbaI0
aF18287.661446801354
aF14558.055803406836
aF79.60589081198869
aF84.97461702242322
aF80.40326381044348
aF89.28315685428102
aF84.48001845644856
aF13936.503291878831
asS'9624ce3b-a91c-4fc2-bca0-defc7f924875'
p15
(lp16
g3
(g4
g5
Ntp17
Rp18
(dp19
g9
L93568467445085763124006912682183276064L
sbaI0
aF18567.092605298512
aF14602.43988373065
aF78.64688454003583
aF84.97461702242322
aF80.40326381044348
aF89.28315685428102
aF84.48001845644856
aF14580.979800395893
as.