(dp0
S'a7b82e09-29d1-49c1-8aa0-1647c741baf2'
p1
(lp2
ccopy_reg
_reconstructor
p3
(cuuid
UUID
p4
c__builtin__
object
p5
Ntp6
Rp7
(dp8
S'int'
p9
L339648330546065970183864516353125430816L
sbaI0
aF16827.700737175222
aF16210.575448349551
aF96.33268205523564
aF72.67419081310369
aF69.95103056605971
aF85.10222719225845
aF81.91337844923154
aF15112.472331323697
asS'f147fab8-e0dc-4260-b614-3f7a7334e88c'
p10
(lp11
g3
(g4
g5
Ntp12
Rp13
(dp14
g9
L339648362950384438517527106249957226016L
sbaI0
aF17018.924609188573
aF18895.766181854444
aF111.02796807533043
aF72.67419081310369
aF69.95103056605971
aF85.10222719225845
aF81.91337844923154
aF16124.091702234236
asS'37e3c252-8fd6-4717-8058-2072d6138c3f'
p15
(lp16
g3
(g4
g5
Ntp17
Rp18
(dp19
g9
L339648348134718048352387464042639963680L
sbaI0
aF16158.417185128475
aF17579.07067883184
aF108.79203375817572
aF72.67419081310369
aF69.95103056605971
aF85.10222719225845
aF81.91337844923154
aF14675.235620247817
as.