(dp0
S'c2eddf15-d5d9-4218-a80f-73fa5e29d9ea'
p1
(lp2
ccopy_reg
_reconstructor
p3
(cuuid
UUID
p4
c__builtin__
object
p5
Ntp6
Rp7
(dp8
S'int'
p9
L270372282701889191611673593880871876128L
sbaI0
aF64683.774466773575
aF56065.99549959175
aF86.67706231087587
aF46.09662872216349
aF44.41659721241143
aF98.09157642675301
aF94.51654406958279
aF45440.66667383937
asS'f24dd147-92e7-4e5a-bdc3-792421d81442'
p10
(lp11
g3
(g4
g5
Ntp12
Rp13
(dp14
g9
L270372259646493899958279159439132636704L
sbaI0
aF61544.65123670898
aF62067.03026910315
aF100.84878055508841
aF46.09662872216349
aF44.41659721241143
aF98.09157642675301
aF94.51654406958279
aF60909.87069398466
asS'01d791dd-72d6-491d-bc94-d260dfcd85d8'
p15
(lp16
g3
(g4
g5
Ntp17
Rp18
(dp19
g9
L270372311937081159372341432286280594976L
sbaI0
aF54842.62314052114
aF22125.176216850276
aF40.34303056613428
aF46.09662872216349
aF44.41659721241143
aF98.09157642675301
aF94.51654406958279
aF21939.80884654791
as.