(dp0
S'c2eddf15-d5d9-4218-a80f-73fa5e29d9ea'
p1
(lp2
ccopy_reg
_reconstructor
p3
(cuuid
UUID
p4
c__builtin__
object
p5
Ntp6
Rp7
(dp8
S'int'
p9
L270372282701889191611673593880871876128L
sbaI0
aF65003.25929982825
aF56065.99549959175
aF86.25105279873235
aF46.03765767671085
aF44.343026384827404
aF98.4499608519693
aF94.82604962876985
aF45484.13823357753
asS'f24dd147-92e7-4e5a-bdc3-792421d81442'
p10
(lp11
g3
(g4
g5
Ntp12
Rp13
(dp14
g9
L270372259646493899958279159439132636704L
sbaI0
aF61848.631373735
aF62067.03026910315
aF100.35311839650649
aF46.03765767671085
aF44.343026384827404
aF98.4499608519693
aF94.82604962876985
aF60955.110232905936
asS'01d791dd-72d6-491d-bc94-d260dfcd85d8'
p15
(lp16
g3
(g4
g5
Ntp17
Rp18
(dp19
g9
L270372311937081159372341432286280594976L
sbaI0
aF55113.50075152592
aF22125.176216850276
aF40.14474841037511
aF46.03765767671085
aF44.343026384827404
aF98.4499608519693
aF94.82604962876985
aF21936.74615375719
as.