(dp0
S'c2eddf15-d5d9-4218-a80f-73fa5e29d9ea'
p1
(lp2
ccopy_reg
_reconstructor
p3
(cuuid
UUID
p4
c__builtin__
object
p5
Ntp6
Rp7
(dp8
S'int'
p9
L270372282701889191611673593880871876128L
sbaI0
aF64884.331692185304
aF56065.99549959175
aF86.40914383702338
aF45.57921317266302
aF43.854250080754625
aF97.29126607994905
aF93.60924018544313
aF44011.413752701694
asS'f24dd147-92e7-4e5a-bdc3-792421d81442'
p10
(lp11
g3
(g4
g5
Ntp12
Rp13
(dp14
g9
L270372259646493899958279159439132636704L
sbaI0
aF61735.47535902901
aF62067.03026910315
aF100.53705735340328
aF45.57921317266302
aF43.854250080754625
aF97.29126607994905
aF93.60924018544313
aF60263.91106784412
asS'01d791dd-72d6-491d-bc94-d260dfcd85d8'
p15
(lp16
g3
(g4
g5
Ntp17
Rp18
(dp19
g9
L270372311937081159372341432286280594976L
sbaI0
aF55012.66708774033
aF22125.176216850276
aF40.21833041027183
aF45.57921317266302
aF43.854250080754625
aF97.29126607994905
aF93.60924018544313
aF20692.425482595125
as.