(dp0
S'e6c80f54-a553-4a09-a2a2-be3089d67f81'
p1
(lp2
ccopy_reg
_reconstructor
p3
(cuuid
UUID
p4
c__builtin__
object
p5
Ntp6
Rp7
(dp8
S'int'
p9
L138902118251988665366362344509577803296L
sbaI0
aF20271.109273315615
aF20363.172561974727
aF100.45416009266104
aF70.78655873890138
aF68.17410681040806
aF88.41697050856176
aF85.15384980836465
aF18497.02289120137
as.