(dp0
S'e6c80f54-a553-4a09-a2a2-be3089d67f81'
p1
(lp2
ccopy_reg
_reconstructor
p3
(cuuid
UUID
p4
c__builtin__
object
p5
Ntp6
Rp7
(dp8
S'int'
p9
L138902118251988665366362344509577803296L
sbaI0
aF19104.233563862028
aF20363.172561974727
aF106.58984299948119
aF74.4642818330578
aF70.96210796845865
aF87.65666434538973
aF83.53403170365414
aF18037.24655660694
as.