(dp0
S'e6c80f54-a553-4a09-a2a2-be3089d67f81'
p1
(lp2
ccopy_reg
_reconstructor
p3
(cuuid
UUID
p4
c__builtin__
object
p5
Ntp6
Rp7
(dp8
S'int'
p9
L138902118251988665366362344509577803296L
sbaI0
aF20302.229341834005
aF20363.172561974727
aF100.30017994139759
aF73.47480088693725
aF70.52915222102588
aF91.91565005568158
aF88.23069672890054
aF19277.69929198768
as.