(dp0
S'5120100e-a0b9-4ed6-8222-b400ebe3c529'
p1
(lp2
ccopy_reg
_reconstructor
p3
(cuuid
UUID
p4
c__builtin__
object
p5
Ntp6
Rp7
(dp8
S'int'
p9
L330735360888211028686212347551025903136L
sbaI0
aF4828.820225659226
aF5959.251046327038
aF123.41008295692946
aF85.36029853053711
aF78.25635552756374
aF90.27524507785273
aF82.76226531263913
aF4506.890559458689
asS'9624ce3b-a91c-4fc2-bca0-defc7f924875'
p10
(lp11
g3
(g4
g5
Ntp12
Rp13
(dp14
g9
L330735347498651563777847952001079096864L
sbaI0
aF17591.764426948743
aF12660.970938289456
aF71.97101229308286
aF85.36029853053711
aF78.25635552756374
aF90.27524507785273
aF82.76226531263913
aF12633.996369752556
asS'39b7861e-1601-4895-a2bc-44b4cd8d571d'
p15
(lp16
g3
(g4
g5
Ntp17
Rp18
(dp19
g9
L330735379982198194626271119875395728928L
sbaI0
aF17327.01176920472
aF13495.264431638823
aF77.88570015069732
aF85.36029853053711
aF78.25635552756374
aF90.27524507785273
aF82.76226531263913
aF14088.600691526544
asS'bab6f77e-c6ac-429b-8249-46eb7311aa96'
p20
(lp21
g3
(g4
g5
Ntp22
Rp23
(dp24
g9
L330728918212491693738832404067046307360L
sbaI0
aF16449.94569597348
aF16367.130324878615
aF99.49656143171866
aF85.36029853053711
aF78.25635552756374
aF90.27524507785273
aF82.76226531263913
aF9597.8780093834
as.