(dp0
S'5120100e-a0b9-4ed6-8222-b400ebe3c529'
p1
(lp2
ccopy_reg
_reconstructor
p3
(cuuid
UUID
p4
c__builtin__
object
p5
Ntp6
Rp7
(dp8
S'int'
p9
L330735360888211028686212347551025903136L
sbaI0
aF4461.571009725013
aF5959.251046327038
aF133.56844558424575
aF87.06679636025042
aF79.86748993921934
aF85.07698446551996
aF78.04220994584774
aF3885.5863065294925
asS'9624ce3b-a91c-4fc2-bca0-defc7f924875'
p10
(lp11
g3
(g4
g5
Ntp12
Rp13
(dp14
g9
L330735347498651563777847952001079096864L
sbaI0
aF16253.84721512829
aF12660.970938289456
aF77.89522548547916
aF87.06679636025042
aF79.86748993921934
aF85.07698446551996
aF78.04220994584774
aF12660.970938289456
asS'39b7861e-1601-4895-a2bc-44b4cd8d571d'
p15
(lp16
g3
(g4
g5
Ntp17
Rp18
(dp19
g9
L330735379982198194626271119875395728928L
sbaI0
aF16009.229953077047
aF13495.264431638823
aF84.29677424331689
aF87.06679636025042
aF79.86748993921934
aF85.07698446551996
aF78.04220994584774
aF13856.737523011656
asS'bab6f77e-c6ac-429b-8249-46eb7311aa96'
p20
(lp21
g3
(g4
g5
Ntp22
Rp23
(dp24
g9
L330728918212491693738832404067046307360L
sbaI0
aF15198.867921964631
aF16367.130324878615
aF107.68650934340755
aF87.06679636025042
aF79.86748993921934
aF85.07698446551996
aF78.04220994584774
aF9651.225057100171
as.