(dp0
S'9624ce3b-a91c-4fc2-bca0-defc7f924875'
p1
(lp2
ccopy_reg
_reconstructor
p3
(cuuid
UUID
p4
c__builtin__
object
p5
Ntp6
Rp7
(dp8
S'int'
p9
L2539685913721045157103607519482918432L
sbaI0
aF40946.964657235185
aF33437.5340081867
aF81.66059264243512
aF35.37218640465329
aF28.030201019121304
aF93.07931665134129
aF73.75942008821703
aF37753.448897992086
asS'9465ee49-8427-4a44-bb62-b02c151746b5'
p10
(lp11
g3
(g4
g5
Ntp12
Rp13
(dp14
g9
L2539718318039513488344386716696229408L
sbaF1208.0471860517437
aF5662.249948375067
aF9169.167862999262
aF161.93506020748163
aF35.37218640465329
aF28.030201019121304
aF93.07931665134129
aF73.75942008821703
aF5147.003911658605
asS'480c3c42-0e7e-483e-bd06-d5391c075842'
p15
(lp16
g3
(g4
g5
Ntp17
Rp18
(dp19
g9
L2539694628818921724944786186580964896L
sbaI0
aF60336.93002042296
aF32435.12726748959
aF53.75667482006607
aF35.37218640465329
aF28.030201019121304
aF93.07931665134129
aF73.75942008821703
aF29691.80976018914
as.