(dp0
S'9624ce3b-a91c-4fc2-bca0-defc7f924875'
p1
(lp2
ccopy_reg
_reconstructor
p3
(cuuid
UUID
p4
c__builtin__
object
p5
Ntp6
Rp7
(dp8
S'int'
p9
L2539685913721045157103607519482918432L
sbaI0
aF39435.56456426189
aF33437.5340081867
aF84.79030128679622
aF35.28387269187971
aF27.78605829888978
aF89.41983756894597
aF70.41814376401497
aF36964.02781871905
asS'56d57d74-cbe5-4bf5-83da-2e0f89de257f'
p10
(lp11
g3
(g4
g5
Ntp12
Rp13
(dp14
g9
L2539718318039513488344386716696229408L
sbaF1208.0471860517437
aF20125.32168023509
aF9169.167862999262
aF45.56035430730146
aF35.28387269187971
aF27.78605829888978
aF89.41983756894597
aF70.41814376401497
aF4961.629568557204
asS'480c3c42-0e7e-483e-bd06-d5391c075842'
p15
(lp16
g3
(g4
g5
Ntp17
Rp18
(dp19
g9
L2539694628818921724944786186580964896L
sbaI0
aF58109.82375245018
aF32435.12726748959
aF55.8169431138947
aF35.28387269187971
aF27.78605829888978
aF89.41983756894597
aF70.41814376401497
aF27781.346757816842
as.