(dp0
S'9624ce3b-a91c-4fc2-bca0-defc7f924875'
p1
(lp2
ccopy_reg
_reconstructor
p3
(cuuid
UUID
p4
c__builtin__
object
p5
Ntp6
Rp7
(dp8
S'int'
p9
L2539685913721045157103607519482918432L
sbaI0
aF42531.58260093263
aF33437.5340081867
aF78.61812790256596
aF34.87521183580656
aF27.56882699221203
aF95.32305771989179
aF75.35280069468176
aF37522.7976826221
asS'9465ee49-8427-4a44-bb62-b02c151746b5'
p10
(lp11
g3
(g4
g5
Ntp12
Rp13
(dp14
g9
L2539718318039513488344386716696229408L
sbaF1208.0471860517437
aF5881.3749297992945
aF9169.167862999262
aF155.90177420149894
aF34.87521183580656
aF27.56882699221203
aF95.32305771989179
aF75.35280069468176
aF5292.271592443961
asS'480c3c42-0e7e-483e-bd06-d5391c075842'
p15
(lp16
g3
(g4
g5
Ntp17
Rp18
(dp19
g9
L2539694628818921724944786186580964896L
sbaI0
aF62671.92561236332
aF32435.12726748959
aF51.753838661518806
aF34.87521183580656
aF27.56882699221203
aF95.32305771989179
aF75.35280069468176
aF29828.75051375144
as.