(dp0
S'e6c80f54-a553-4a09-a2a2-be3089d67f81'
p1
(lp2
ccopy_reg
_reconstructor
p3
(cuuid
UUID
p4
c__builtin__
object
p5
Ntp6
Rp7
(dp8
S'int'
p9
L3076848022655888626225138087884404256L
sbaI0
aF20539.661368029032
aF20532.840441471828
aF99.96679143616349
aF63.419567425885326
aF62.11644516476855
aF89.85267797384039
aF88.00641774783833
aF17640.293313813272
asS'ac6ea2c8-cba8-4aac-829b-703f880a79c4'
p10
(lp11
g3
(g4
g5
Ntp12
Rp13
(dp14
g9
L3076859827652103249672921361326716448L
sbaI0
aF12505.443045531507
aF12337.651860828428
aF98.65825477680269
aF63.419567425885326
aF62.11644516476855
aF89.85267797384039
aF88.00641774783833
aF10646.57592695334
asS'd3c47541-2039-49d0-8472-4c0c55b619b5'
p15
(lp16
g3
(g4
g5
Ntp17
Rp18
(dp19
g9
L3076775211974538016275165130697389600L
sbaI0
aF18815.18291199744
aF19533.53124724454
aF103.81791842581052
aF63.419567425885326
aF62.11644516476855
aF89.85267797384039
aF88.00641774783833
aF17145.714623330092
asS'e5ef913c-e322-4e37-89e9-7e809abff2e7'
p20
(lp21
g3
(g4
g5
Ntp22
Rp23
(dp24
g9
L3076866324361429419016182084435359264L
sbaI0
aF20369.91210052467
aF20308.058242313567
aF99.69634695571656
aF63.419567425885326
aF62.11644516476855
aF89.85267797384039
aF88.00641774783833
aF18932.750490288276
as.