(dp0
S'e6c80f54-a553-4a09-a2a2-be3089d67f81'
p1
(lp2
ccopy_reg
_reconstructor
p3
(cuuid
UUID
p4
c__builtin__
object
p5
Ntp6
Rp7
(dp8
S'int'
p9
L3076848022655888626225138087884404256L
sbaI0
aF20161.422686818547
aF20532.840441471828
aF101.84221996841578
aF64.21867598359981
aF62.41371906705607
aF89.30936321169123
aF86.79919696531412
aF19795.08347227355
asS'ac6ea2c8-cba8-4aac-829b-703f880a79c4'
p10
(lp11
g3
(g4
g5
Ntp12
Rp13
(dp14
g9
L3076859827652103249672921361326716448L
sbaI0
aF12275.154814350764
aF12337.651860828428
aF100.50913448687912
aF64.21867598359981
aF62.41371906705607
aF89.30936321169123
aF86.79919696531412
aF10521.543879117544
asS'd3c47541-2039-49d0-8472-4c0c55b619b5'
p15
(lp16
g3
(g4
g5
Ntp17
Rp18
(dp19
g9
L3076775211974538016275165130697389600L
sbaI0
aF18468.700570158755
aF19533.53124724454
aF105.76559608533753
aF64.21867598359981
aF62.41371906705607
aF89.30936321169123
aF86.79919696531412
aF16491.12406358334
asS'e5ef913c-e322-4e37-89e9-7e809abff2e7'
p20
(lp21
g3
(g4
g5
Ntp22
Rp23
(dp24
g9
L3076866324361429419016182084435359264L
sbaI0
aF19994.799358828306
aF20308.058242313567
aF101.56670181012318
aF64.21867598359981
aF62.41371906705607
aF89.30936321169123
aF86.79919696531412
aF17434.063035597475
as.