(dp0
S'e6c80f54-a553-4a09-a2a2-be3089d67f81'
p1
(lp2
ccopy_reg
_reconstructor
p3
(cuuid
UUID
p4
c__builtin__
object
p5
Ntp6
Rp7
(dp8
S'int'
p9
L3076848022655888626225138087884404256L
sbaI0
aF19762.187661568587
aF20532.840441471828
aF103.89963294095179
aF67.68512776925473
aF66.68689466627552
aF92.26622301231127
aF90.90546325410057
aF18421.686404439104
asS'ac6ea2c8-cba8-4aac-829b-703f880a79c4'
p10
(lp11
g3
(g4
g5
Ntp12
Rp13
(dp14
g9
L3076859827652103249672921361326716448L
sbaI0
aF12032.083091765513
aF12337.651860828428
aF102.5396165130545
aF67.68512776925473
aF66.68689466627552
aF92.26622301231127
aF90.90546325410057
aF10690.14898581349
asS'd3c47541-2039-49d0-8472-4c0c55b619b5'
p15
(lp16
g3
(g4
g5
Ntp17
Rp18
(dp19
g9
L3076775211974538016275165130697389600L
sbaI0
aF18102.984705113107
aF19533.53124724454
aF107.90226896522417
aF67.68512776925473
aF66.68689466627552
aF92.26622301231127
aF90.90546325410057
aF17246.134045310027
asS'e5ef913c-e322-4e37-89e9-7e809abff2e7'
p20
(lp21
g3
(g4
g5
Ntp22
Rp23
(dp24
g9
L3076866324361429419016182084435359264L
sbaI0
aF19598.863796596957
aF20308.058242313567
aF103.6185487744435
aF67.68512776925473
aF66.68689466627552
aF92.26622301231127
aF90.90546325410057
aF17962.35460370442
as.