(dp0
S'104d40b1-bfca-440e-a184-35e548e21935'
p1
(lp2
ccopy_reg
_reconstructor
p3
(cuuid
UUID
p4
c__builtin__
object
p5
Ntp6
Rp7
(dp8
S'int'
p9
L211551555872357903944178067094773610016L
sbaI0
aF23099.824200350187
aF5704.226002810042
aF24.69380698890153
aF69.28870819100314
aF70.64362443112734
aF82.22520979877802
aF83.83309476319202
aF13289.335402577295
asS'ee4a0c0e-57fb-4760-b5ee-7be841a38d6e'
p10
(lp11
g3
(g4
g5
Ntp12
Rp13
(dp14
g9
L211551481397885140535324115644621436448L
sbaI0
aF11584.89952408391
aF12683.585554004225
aF109.48377694287508
aF69.28870819100314
aF70.64362443112734
aF82.22520979877802
aF83.83309476319202
aF9826.916919436153
asS'f24dd147-92e7-4e5a-bdc3-792421d81442'
p15
(lp16
g3
(g4
g5
Ntp17
Rp18
(dp19
g9
L211551473554297051619720980642877060640L
sbaI0
aF22608.165719054807
aF22105.19127948619
aF97.7752532168291
aF69.28870819100314
aF70.64362443112734
aF82.22520979877802
aF83.83309476319202
aF22310.149957641454
as.