(dp0
S'104d40b1-bfca-440e-a184-35e548e21935'
p1
(lp2
ccopy_reg
_reconstructor
p3
(cuuid
UUID
p4
c__builtin__
object
p5
Ntp6
Rp7
(dp8
S'int'
p9
L211551555872357903944178067094773610016L
sbaI0
aF24286.095131417533
aF5704.226002810042
aF23.487621093235408
aF70.57829656123528
aF72.45441957278246
aF88.05676271259453
aF90.39750096920737
aF15429.096507253305
asS'ee4a0c0e-57fb-4760-b5ee-7be841a38d6e'
p10
(lp11
g3
(g4
g5
Ntp12
Rp13
(dp14
g9
L211551481397885140535324115644621436448L
sbaI0
aF12179.831737661036
aF12683.585554004225
aF104.13596695909632
aF70.57829656123528
aF72.45441957278246
aF88.05676271259453
aF90.39750096920737
aF10925.329067272163
asS'f24dd147-92e7-4e5a-bdc3-792421d81442'
p15
(lp16
g3
(g4
g5
Ntp17
Rp18
(dp19
g9
L211551473554297051619720980642877060640L
sbaI0
aF23769.187966006004
aF22105.19127948619
aF92.99935408437338
aF70.57829656123528
aF72.45441957278246
aF88.05676271259453
aF90.39750096920737
aF22501.244059716126
as.