(dp0
S'104d40b1-bfca-440e-a184-35e548e21935'
p1
(lp2
ccopy_reg
_reconstructor
p3
(cuuid
UUID
p4
c__builtin__
object
p5
Ntp6
Rp7
(dp8
S'int'
p9
L211551555872357903944178067094773610016L
sbaI0
aF24319.59512563461
aF5704.226002810042
aF23.45526713476153
aF70.47063983153026
aF72.2947229315869
aF88.04372450600833
aF90.32267458112311
aF15475.096656622785
asS'ee4a0c0e-57fb-4760-b5ee-7be841a38d6e'
p10
(lp11
g3
(g4
g5
Ntp12
Rp13
(dp14
g9
L211551481397885140535324115644621436448L
sbaI0
aF12196.632474484664
aF12683.585554004225
aF103.99252072683396
aF70.47063983153026
aF72.2947229315869
aF88.04372450600833
aF90.32267458112311
aF10805.594048694235
asS'f24dd147-92e7-4e5a-bdc3-792421d81442'
p15
(lp16
g3
(g4
g5
Ntp17
Rp18
(dp19
g9
L211551473554297051619720980642877060640L
sbaI0
aF23801.97494370235
aF22105.19127948619
aF92.87124842274862
aF70.47063983153026
aF72.2947229315869
aF88.04372450600833
aF90.32267458112311
aF22659.47835303002
as.