(dp0
S'd3c47541-2039-49d0-8472-4c0c55b619b5'
p1
(lp2
ccopy_reg
_reconstructor
p3
(cuuid
UUID
p4
c__builtin__
object
p5
Ntp6
Rp7
(dp8
S'int'
p9
L207876900691303184068177902764150142496L
sbaI0
aF175665.1644277414
aF207196.7638374235
aF117.9498305838847
aF9.394008444324523
aF5.269249630493792
aF98.34025237382455
aF55.16062089517326
aF105618.83962165761
as.