(dp0
S'8b445b57-9fb4-4937-9d74-3eb02337b1a4'
p1
(lp2
ccopy_reg
_reconstructor
p3
(cuuid
UUID
p4
c__builtin__
object
p5
Ntp6
Rp7
(dp8
S'int'
p9
L207876900691303184068177902764150142496L
sbaI0
aF41261.034788551886
aF207196.7638374235
aF502.16085199809737
aF82.22701588247129
aF23.27845217028633
aF92.69996818843616
aF26.243342926927106
aF37962.175213627634
as.