(dp0
S'bc63d18c-7a19-498a-927e-c4805b875e96'
p1
(lp2
ccopy_reg
_reconstructor
p3
(cuuid
UUID
p4
c__builtin__
object
p5
Ntp6
Rp7
(dp8
S'int'
p9
L207876900691303184068177902764150142496L
sbaI0
aF137039.92602941557
aF207196.7638374235
aF151.19445101929549
aF15.60781353508111
aF10.805574576947704
aF98.73078568532215
aF68.3531274489848
aF135427.44123465623
as.