(dp0
S'9624ce3b-a91c-4fc2-bca0-defc7f924875'
p1
(lp2
ccopy_reg
_reconstructor
p3
(cuuid
UUID
p4
c__builtin__
object
p5
Ntp6
Rp7
(dp8
S'int'
p9
L277139234061322998824621744135986656800L
sbaI0
aF15250.596070504433
aF12290.606054484948
aF80.5909880352527
aF87.5879334729072
aF86.18079746029473
aF87.38483863657711
aF85.98096542566398
aF12571.138842022754
as.