(dp0
S'9624ce3b-a91c-4fc2-bca0-defc7f924875'
p1
(lp2
ccopy_reg
_reconstructor
p3
(cuuid
UUID
p4
c__builtin__
object
p5
Ntp6
Rp7
(dp8
S'int'
p9
L277139234061322998824621744135986656800L
sbaI0
aF15105.93540816613
aF12290.606054484948
aF81.36276054669716
aF90.09838806990368
aF88.70800034729203
aF89.03681884033072
aF87.66281312915257
aF12117.962984496811
as.