(dp0
S'9624ce3b-a91c-4fc2-bca0-defc7f924875'
p1
(lp2
ccopy_reg
_reconstructor
p3
(cuuid
UUID
p4
c__builtin__
object
p5
Ntp6
Rp7
(dp8
S'int'
p9
L277139234061322998824621744135986656800L
sbaI0
aF15209.662242337103
aF12290.606054484948
aF80.80788290139166
aF87.46594442880927
aF86.11475095990397
aF87.02891117915487
aF85.68446909762079
aF12582.078663446462
as.