(dp0
S'f147fab8-e0dc-4260-b614-3f7a7334e88c'
p1
(lp2
ccopy_reg
_reconstructor
p3
(cuuid
UUID
p4
c__builtin__
object
p5
Ntp6
Rp7
(dp8
S'int'
p9
L41240613951789369406335234810363688480L
sbaI0
aF18293.00775868309
aF15478.705716067323
aF84.61542202495427
aF71.84614819002057
aF62.65189921980016
aF93.2459728903094
aF81.3131593460614
aF15497.388384781318
asS'590f12d9-048b-4408-9515-9e0daa4f249b'
p10
(lp11
g3
(g4
g5
Ntp12
Rp13
(dp14
g9
L41240544944059819483790825768450962976L
sbaI0
aF77151.3429666711
aF74721.33903937564
aF96.850341375982
aF71.84614819002057
aF62.65189921980016
aF93.2459728903094
aF81.3131593460614
aF70848.54356204666
asS'a7b82e09-29d1-49c1-8aa0-1647c741baf2'
p15
(lp16
g3
(g4
g5
Ntp17
Rp18
(dp19
g9
L41240576793781150217837521166075082272L
sbaI0
aF18087.46834566418
aF16683.03483461872
aF92.23532290862518
aF71.84614819002057
aF62.65189921980016
aF93.2459728903094
aF81.3131593460614
aF15831.296663106628
asS'37e3c252-8fd6-4717-8058-2072d6138c3f'
p20
(lp21
g3
(g4
g5
Ntp22
Rp23
(dp24
g9
L41240566414891860847178735929826915872L
sbaI0
aF17368.080400097988
aF19350.678471814594
aF111.4151824844467
aF71.84614819002057
aF62.65189921980016
aF93.2459728903094
aF81.3131593460614
aF16510.43118957761
asS'cb45cd08-acb1-45ad-bb4e-c7ee5ca7d632'
p25
(lp26
g3
(g4
g5
Ntp27
Rp28
(dp29
g9
L41240632174266747688348571749885589024L
sbaF17721.814864656648
aF17049.436896674804
aF22995.029026639804
aF134.87265981860423
aF71.84614819002057
aF62.65189921980016
aF93.2459728903094
aF81.3131593460614
aF15577.549933777816
as.