(dp0
S'f147fab8-e0dc-4260-b614-3f7a7334e88c'
p1
(lp2
ccopy_reg
_reconstructor
p3
(cuuid
UUID
p4
c__builtin__
object
p5
Ntp6
Rp7
(dp8
S'int'
p9
L41240613951789369406335234810363688480L
sbaI0
aF17361.082356254534
aF15478.705716067323
aF89.15749259429633
aF73.6479566044305
aF65.51805517517337
aF90.71497290035505
aF80.70106590496053
aF14940.444990194124
asS'5401233d-3c79-4ef4-afc9-51213df45b81'
p10
(lp11
g3
(g4
g5
Ntp12
Rp13
(dp14
g9
L41240632174266747688348571749885589024L
sbaF17721.814864656648
aF16776.422216644296
aF22995.029026639804
aF137.06753877370753
aF73.6479566044305
aF65.51805517517337
aF90.71497290035505
aF80.70106590496053
aF15887.110450844651
asS'590f12d9-048b-4408-9515-9e0daa4f249b'
p15
(lp16
g3
(g4
g5
Ntp17
Rp18
(dp19
g9
L41240544944059819483790825768450962976L
sbaI0
aF73220.9178943923
aF74721.33903937564
aF102.04917008435679
aF73.6479566044305
aF65.51805517517337
aF90.71497290035505
aF80.70106590496053
aF70633.91763351105
asS'a7b82e09-29d1-49c1-8aa0-1647c741baf2'
p20
(lp21
g3
(g4
g5
Ntp22
Rp23
(dp24
g9
L41240576793781150217837521166075082272L
sbaI0
aF17166.014015173023
aF16683.03483461872
aF97.18642207720792
aF73.6479566044305
aF65.51805517517337
aF90.71497290035505
aF80.70106590496053
aF16105.92044671269
asS'37e3c252-8fd6-4717-8058-2072d6138c3f'
p25
(lp26
g3
(g4
g5
Ntp27
Rp28
(dp29
g9
L41240566414891860847178735929826915872L
sbaI0
aF16483.274821387724
aF19350.678471814594
aF117.39583718343576
aF73.6479566044305
aF65.51805517517337
aF90.71497290035505
aF80.70106590496053
aF16483.274821387724
as.