(dp0
S'f147fab8-e0dc-4260-b614-3f7a7334e88c'
p1
(lp2
ccopy_reg
_reconstructor
p3
(cuuid
UUID
p4
c__builtin__
object
p5
Ntp6
Rp7
(dp8
S'int'
p9
L41240613951789369406335234810363688480L
sbaI0
aF17214.05139980798
aF15478.705716067323
aF89.91901648579942
aF74.11485589324272
aF65.57848367160321
aF90.5169350653925
aF80.09141050938227
aF14573.866743817971
asS'5401233d-3c79-4ef4-afc9-51213df45b81'
p10
(lp11
g3
(g4
g5
Ntp12
Rp13
(dp14
g9
L41240632174266747688348571749885589024L
sbaF17721.814864656648
aF16634.342745235346
aF22995.029026639804
aF138.2382783547392
aF74.11485589324272
aF65.57848367160321
aF90.5169350653925
aF80.09141050938227
aF15556.466736165214
asS'590f12d9-048b-4408-9515-9e0daa4f249b'
p15
(lp16
g3
(g4
g5
Ntp17
Rp18
(dp19
g9
L41240544944059819483790825768450962976L
sbaI0
aF72600.81015174177
aF74721.33903937564
aF102.9208060945901
aF74.11485589324272
aF65.57848367160321
aF90.5169350653925
aF80.09141050938227
aF70614.97139479502
asS'a7b82e09-29d1-49c1-8aa0-1647c741baf2'
p20
(lp21
g3
(g4
g5
Ntp22
Rp23
(dp24
g9
L41240576793781150217837521166075082272L
sbaI0
aF17020.635091944976
aF16683.03483461872
aF98.01652373426404
aF74.11485589324272
aF65.57848367160321
aF90.5169350653925
aF80.09141050938227
aF15662.761723972086
asS'37e3c252-8fd6-4717-8058-2072d6138c3f'
p25
(lp26
g3
(g4
g5
Ntp27
Rp28
(dp29
g9
L41240566414891860847178735929826915872L
sbaI0
aF16343.678014424439
aF19350.678471814594
aF118.3985541977532
aF74.11485589324272
aF65.57848367160321
aF90.5169350653925
aF80.09141050938227
aF15871.416922405433
as.