(dp0
S'9624ce3b-a91c-4fc2-bca0-defc7f924875'
p1
(lp2
ccopy_reg
_reconstructor
p3
(cuuid
UUID
p4
c__builtin__
object
p5
Ntp6
Rp7
(dp8
S'int'
p9
L41786844595421668826390223296704198176L
sbaI0
aF16499.68228196213
aF10635.93997215025
aF64.46148350248978
aF72.08825908841496
aF68.08324162833836
aF80.3169375283146
aF75.8547582329836
aF8570.461361357626
asS'e09699b7-1e3b-4c66-9f00-0abce8c8c0a0'
p10
(lp11
g3
(g4
g5
Ntp12
Rp13
(dp14
g9
L41786880248094800247245192709022594592L
sbaI0
aF5008.729567469484
aF5491.424383956339
aF109.63707083771988
aF72.08825908841496
aF68.08324162833836
aF80.3169375283146
aF75.8547582329836
aF3668.7726834500468
as.