(dp0
S'9624ce3b-a91c-4fc2-bca0-defc7f924875'
p1
(lp2
ccopy_reg
_reconstructor
p3
(cuuid
UUID
p4
c__builtin__
object
p5
Ntp6
Rp7
(dp8
S'int'
p9
L41786844595421668826390223296704198176L
sbaI0
aF15115.074489974606
aF10635.93997215025
aF70.36644099375603
aF82.44932777756604
aF76.70601096703099
aF84.15199811884607
aF78.29007542688703
aF10207.348904906148
asS'e09699b7-1e3b-4c66-9f00-0abce8c8c0a0'
p10
(lp11
g3
(g4
g5
Ntp12
Rp13
(dp14
g9
L41786880248094800247245192709022594592L
sbaI0
aF4588.41080807991
aF5491.424383956339
aF119.68031228342235
aF82.44932777756604
aF76.70601096703099
aF84.15199811884607
aF78.29007542688703
aF4050.9523746445534
as.