(dp0
S'9624ce3b-a91c-4fc2-bca0-defc7f924875'
p1
(lp2
ccopy_reg
_reconstructor
p3
(cuuid
UUID
p4
c__builtin__
object
p5
Ntp6
Rp7
(dp8
S'int'
p9
L41786844595421668826390223296704198176L
sbaI0
aF16463.736582376045
aF10635.93997215025
aF64.6022239175991
aF71.79647862577993
aF68.0021824405474
aF79.8175833376518
aF75.59938827057805
aF8126.396687791397
asS'e09699b7-1e3b-4c66-9f00-0abce8c8c0a0'
p10
(lp11
g3
(g4
g5
Ntp12
Rp13
(dp14
g9
L41786880248094800247245192709022594592L
sbaI0
aF4997.817703515771
aF5491.424383956339
aF109.87644427473484
aF71.79647862577993
aF68.0021824405474
aF79.8175833376518
aF75.59938827057805
aF3435.280991651721
as.