(dp0
S'590f12d9-048b-4408-9515-9e0daa4f249b'
p1
(lp2
ccopy_reg
_reconstructor
p3
(cuuid
UUID
p4
c__builtin__
object
p5
Ntp6
Rp7
(dp8
S'int'
p9
L194978800173631726048063629661229987360L
sbaI0
aF111211.93130932336
aF67878.916426656
aF61.03564215413048
aF50.769186757929695
aF51.10656890213395
aF85.80484247375819
aF86.37505097197456
aF67386.13568873642
asS'ba52c201-4322-4a5c-94c5-933c5bb7a1f3'
p10
(lp11
g3
(g4
g5
Ntp12
Rp13
(dp14
g9
L194978818237652779301775723194846197280L
sbaI0
aF5524.223587686563
aF3183.157483963666
aF57.62180754339652
aF50.769186757929695
aF51.10656890213395
aF85.80484247375819
aF86.37505097197456
aF5524.223587686563
asS'a7b82e09-29d1-49c1-8aa0-1647c741baf2'
p15
(lp16
g3
(g4
g5
Ntp17
Rp18
(dp19
g9
L194978774820619721483701624133464536608L
sbaI0
aF26072.680135801893
aF26096.483586086226
aF100.09129652249156
aF50.769186757929695
aF51.10656890213395
aF85.80484247375819
aF86.37505097197456
aF24948.840207815992
asS'f147fab8-e0dc-4260-b614-3f7a7334e88c'
p20
(lp21
g3
(g4
g5
Ntp22
Rp23
(dp24
g9
L194978788210179186396773970143873775136L
sbaI0
aF26368.960591890558
aF27192.35474889088
aF103.12258859855686
aF50.769186757929695
aF51.10656890213395
aF85.80484247375819
aF86.37505097197456
aF24969.266568721527
asS'37e3c252-8fd6-4717-8058-2072d6138c3f'
p25
(lp26
g3
(g4
g5
Ntp27
Rp28
(dp29
g9
L194978781951154347770397110787050747424L
sbaI0
aF25035.698539491586
aF26269.67170237978
aF104.9288545352218
aF50.769186757929695
aF51.10656890213395
aF85.80484247375819
aF86.37505097197456
aF24002.85807134768
as.