(dp0
S'590f12d9-048b-4408-9515-9e0daa4f249b'
p1
(lp2
ccopy_reg
_reconstructor
p3
(cuuid
UUID
p4
c__builtin__
object
p5
Ntp6
Rp7
(dp8
S'int'
p9
L194978800173631726048063629661229987360L
sbaI0
aF122083.76548346772
aF67878.916426656
aF55.60028080543435
aF47.04886767683229
aF47.58360175663438
aF87.29056419028497
aF88.28266542082494
aF67877.84782758841
asS'ba52c201-4322-4a5c-94c5-933c5bb7a1f3'
p10
(lp11
g3
(g4
g5
Ntp12
Rp13
(dp14
g9
L194978818237652779301775723194846197280L
sbaI0
aF6064.259553964139
aF3183.157483963666
aF52.490455852650165
aF47.04886767683229
aF47.58360175663438
aF87.29056419028497
aF88.28266542082494
aF6064.259553964139
asS'a7b82e09-29d1-49c1-8aa0-1647c741baf2'
p15
(lp16
g3
(g4
g5
Ntp17
Rp18
(dp19
g9
L194978774820619721483701624133464536608L
sbaI0
aF28621.488088102822
aF26096.483586086226
aF91.17794122288781
aF47.04886767683229
aF47.58360175663438
aF87.29056419028497
aF88.28266542082494
aF23115.34113289789
asS'f147fab8-e0dc-4260-b614-3f7a7334e88c'
p20
(lp21
g3
(g4
g5
Ntp22
Rp23
(dp24
g9
L194978788210179186396773970143873775136L
sbaI0
aF28946.73227092217
aF27192.35474889088
aF93.93928991496698
aF47.04886767683229
aF47.58360175663438
aF87.29056419028497
aF88.28266542082494
aF27170.106026696398
asS'37e3c252-8fd6-4717-8058-2072d6138c3f'
p25
(lp26
g3
(g4
g5
Ntp27
Rp28
(dp29
g9
L194978781951154347770397110787050747424L
sbaI0
aF27483.133448235105
aF26269.67170237978
aF95.58470380336762
aF47.04886767683229
aF47.58360175663438
aF87.29056419028497
aF88.28266542082494
aF24497.08164892076
as.