(dp0
S'590f12d9-048b-4408-9515-9e0daa4f249b'
p1
(lp2
ccopy_reg
_reconstructor
p3
(cuuid
UUID
p4
c__builtin__
object
p5
Ntp6
Rp7
(dp8
S'int'
p9
L194978818237652779301775723194846197280L
sbaI0
aF121808.29698253974
aF3183.157483963666
aF2.613251775796477
aF43.955171436906994
aF44.90815150762749
aF81.36676665336606
aF83.13085730538239
aF7144.39124138326
asS'a7b82e09-29d1-49c1-8aa0-1647c741baf2'
p10
(lp11
g3
(g4
g5
Ntp12
Rp13
(dp14
g9
L194978774820619721483701624133464536608L
sbaI0
aF28556.906868915023
aF26096.483586086226
aF91.38413941634892
aF43.955171436906994
aF44.90815150762749
aF81.36676665336606
aF83.13085730538239
aF24338.94909047513
asS'f147fab8-e0dc-4260-b614-3f7a7334e88c'
p15
(lp16
g3
(g4
g5
Ntp17
Rp18
(dp19
g9
L194978788210179186396773970143873775136L
sbaI0
aF28881.417174243612
aF27192.35474889088
aF94.15173287667119
aF43.955171436906994
aF44.90815150762749
aF81.36676665336606
aF83.13085730538239
aF23396.64329828773
asS'37e3c252-8fd6-4717-8058-2072d6138c3f'
p20
(lp21
g3
(g4
g5
Ntp22
Rp23
(dp24
g9
L194978781951154347770397110787050747424L
sbaI0
aF27421.120800264995
aF26269.67170237978
aF95.80086785557617
aF43.955171436906994
aF44.90815150762749
aF81.36676665336606
aF83.13085730538239
aF24543.532864188674
as.